
vrs_cv5.elf:     file format elf32-littlearm

Sections:
Idx Name          Size      VMA       LMA       File off  Algn
  0 .isr_vector   0000013c  08000000  08000000  00010000  2**0
                  CONTENTS, ALLOC, LOAD, READONLY, DATA
  1 .text         000012c8  0800013c  0800013c  0001013c  2**2
                  CONTENTS, ALLOC, LOAD, READONLY, CODE
  2 .rodata       00000000  08001404  08001404  0002001c  2**0
                  CONTENTS, ALLOC, LOAD, DATA
  3 .init_array   00000004  08001404  08001404  00011404  2**2
                  CONTENTS, ALLOC, LOAD, DATA
  4 .fini_array   00000004  08001408  08001408  00011408  2**2
                  CONTENTS, ALLOC, LOAD, DATA
  5 .data         0000001c  20000000  0800140c  00020000  2**2
                  CONTENTS, ALLOC, LOAD, DATA
  6 .bss          00000030  2000001c  08001428  0002001c  2**2
                  ALLOC
  7 ._user_heap_stack 00000400  2000004c  08001428  0002004c  2**0
                  ALLOC
  8 .ARM.attributes 00000029  00000000  00000000  0002001c  2**0
                  CONTENTS, READONLY
  9 .debug_info   00003eff  00000000  00000000  00020045  2**0
                  CONTENTS, READONLY, DEBUGGING
 10 .debug_abbrev 00000c00  00000000  00000000  00023f44  2**0
                  CONTENTS, READONLY, DEBUGGING
 11 .debug_aranges 00000588  00000000  00000000  00024b48  2**3
                  CONTENTS, READONLY, DEBUGGING
 12 .debug_ranges 000004f0  00000000  00000000  000250d0  2**3
                  CONTENTS, READONLY, DEBUGGING
 13 .debug_line   00001dde  00000000  00000000  000255c0  2**0
                  CONTENTS, READONLY, DEBUGGING
 14 .debug_str    00001c10  00000000  00000000  0002739e  2**0
                  CONTENTS, READONLY, DEBUGGING
 15 .comment      0000007e  00000000  00000000  00028fae  2**0
                  CONTENTS, READONLY
 16 .debug_frame  00001680  00000000  00000000  0002902c  2**2
                  CONTENTS, READONLY, DEBUGGING
 17 .stabstr      0000003f  00000000  00000000  0002a6ac  2**0
                  CONTENTS, READONLY, DEBUGGING

Disassembly of section .text:

0800013c <__do_global_dtors_aux>:
 800013c:	b510      	push	{r4, lr}
 800013e:	4c05      	ldr	r4, [pc, #20]	; (8000154 <__do_global_dtors_aux+0x18>)
 8000140:	7823      	ldrb	r3, [r4, #0]
 8000142:	b933      	cbnz	r3, 8000152 <__do_global_dtors_aux+0x16>
 8000144:	4b04      	ldr	r3, [pc, #16]	; (8000158 <__do_global_dtors_aux+0x1c>)
 8000146:	b113      	cbz	r3, 800014e <__do_global_dtors_aux+0x12>
 8000148:	4804      	ldr	r0, [pc, #16]	; (800015c <__do_global_dtors_aux+0x20>)
 800014a:	f3af 8000 	nop.w
 800014e:	2301      	movs	r3, #1
 8000150:	7023      	strb	r3, [r4, #0]
 8000152:	bd10      	pop	{r4, pc}
 8000154:	2000001c 	.word	0x2000001c
 8000158:	00000000 	.word	0x00000000
 800015c:	080013ec 	.word	0x080013ec

08000160 <frame_dummy>:
 8000160:	b508      	push	{r3, lr}
 8000162:	4b03      	ldr	r3, [pc, #12]	; (8000170 <frame_dummy+0x10>)
 8000164:	b11b      	cbz	r3, 800016e <frame_dummy+0xe>
 8000166:	4903      	ldr	r1, [pc, #12]	; (8000174 <frame_dummy+0x14>)
 8000168:	4803      	ldr	r0, [pc, #12]	; (8000178 <frame_dummy+0x18>)
 800016a:	f3af 8000 	nop.w
 800016e:	bd08      	pop	{r3, pc}
 8000170:	00000000 	.word	0x00000000
 8000174:	20000020 	.word	0x20000020
 8000178:	080013ec 	.word	0x080013ec

0800017c <NVIC_PriorityGroupConfig>:
  *     @arg NVIC_PriorityGroup_4: 4 bits for preemption priority.
  *                                0 bits for subpriority.
  * @retval None
  */
void NVIC_PriorityGroupConfig(uint32_t NVIC_PriorityGroup)
{
 800017c:	b480      	push	{r7}
 800017e:	b083      	sub	sp, #12
 8000180:	af00      	add	r7, sp, #0
 8000182:	6078      	str	r0, [r7, #4]
  /* Check the parameters */
  assert_param(IS_NVIC_PRIORITY_GROUP(NVIC_PriorityGroup));
  
  /* Set the PRIGROUP[10:8] bits according to NVIC_PriorityGroup value */
  SCB->AIRCR = AIRCR_VECTKEY_MASK | NVIC_PriorityGroup;
 8000184:	4a05      	ldr	r2, [pc, #20]	; (800019c <NVIC_PriorityGroupConfig+0x20>)
 8000186:	687b      	ldr	r3, [r7, #4]
 8000188:	f043 63bf 	orr.w	r3, r3, #100139008	; 0x5f80000
 800018c:	f443 3300 	orr.w	r3, r3, #131072	; 0x20000
 8000190:	60d3      	str	r3, [r2, #12]
}
 8000192:	bf00      	nop
 8000194:	370c      	adds	r7, #12
 8000196:	46bd      	mov	sp, r7
 8000198:	bc80      	pop	{r7}
 800019a:	4770      	bx	lr
 800019c:	e000ed00 	.word	0xe000ed00

080001a0 <NVIC_Init>:
  * @param  NVIC_InitStruct: pointer to a NVIC_InitTypeDef structure that contains
  *         the configuration information for the specified NVIC peripheral.
  * @retval None
  */
void NVIC_Init(NVIC_InitTypeDef* NVIC_InitStruct)
{
 80001a0:	b480      	push	{r7}
 80001a2:	b085      	sub	sp, #20
 80001a4:	af00      	add	r7, sp, #0
 80001a6:	6078      	str	r0, [r7, #4]
  uint8_t tmppriority = 0x00, tmppre = 0x00, tmpsub = 0x0F;
 80001a8:	2300      	movs	r3, #0
 80001aa:	73fb      	strb	r3, [r7, #15]
 80001ac:	2300      	movs	r3, #0
 80001ae:	73bb      	strb	r3, [r7, #14]
 80001b0:	230f      	movs	r3, #15
 80001b2:	737b      	strb	r3, [r7, #13]
  /* Check the parameters */
  assert_param(IS_FUNCTIONAL_STATE(NVIC_InitStruct->NVIC_IRQChannelCmd));
  assert_param(IS_NVIC_PREEMPTION_PRIORITY(NVIC_InitStruct->NVIC_IRQChannelPreemptionPriority));  
  assert_param(IS_NVIC_SUB_PRIORITY(NVIC_InitStruct->NVIC_IRQChannelSubPriority));
    
  if (NVIC_InitStruct->NVIC_IRQChannelCmd != DISABLE)
 80001b4:	687b      	ldr	r3, [r7, #4]
 80001b6:	78db      	ldrb	r3, [r3, #3]
 80001b8:	2b00      	cmp	r3, #0
 80001ba:	d038      	beq.n	800022e <NVIC_Init+0x8e>
  {
    /* Compute the Corresponding IRQ Priority --------------------------------*/    
    tmppriority = (0x700 - ((SCB->AIRCR) & (uint32_t)0x700))>> 0x08;
 80001bc:	4b26      	ldr	r3, [pc, #152]	; (8000258 <NVIC_Init+0xb8>)
 80001be:	68db      	ldr	r3, [r3, #12]
 80001c0:	43db      	mvns	r3, r3
 80001c2:	f403 63e0 	and.w	r3, r3, #1792	; 0x700
 80001c6:	0a1b      	lsrs	r3, r3, #8
 80001c8:	73fb      	strb	r3, [r7, #15]
    tmppre = (0x4 - tmppriority);
 80001ca:	7bfb      	ldrb	r3, [r7, #15]
 80001cc:	f1c3 0304 	rsb	r3, r3, #4
 80001d0:	73bb      	strb	r3, [r7, #14]
    tmpsub = tmpsub >> tmppriority;
 80001d2:	7b7a      	ldrb	r2, [r7, #13]
 80001d4:	7bfb      	ldrb	r3, [r7, #15]
 80001d6:	fa42 f303 	asr.w	r3, r2, r3
 80001da:	737b      	strb	r3, [r7, #13]

    tmppriority = (uint32_t)NVIC_InitStruct->NVIC_IRQChannelPreemptionPriority << tmppre;
 80001dc:	687b      	ldr	r3, [r7, #4]
 80001de:	785b      	ldrb	r3, [r3, #1]
 80001e0:	461a      	mov	r2, r3
 80001e2:	7bbb      	ldrb	r3, [r7, #14]
 80001e4:	fa02 f303 	lsl.w	r3, r2, r3
 80001e8:	73fb      	strb	r3, [r7, #15]
    tmppriority |=  (uint8_t)(NVIC_InitStruct->NVIC_IRQChannelSubPriority & tmpsub);
 80001ea:	687b      	ldr	r3, [r7, #4]
 80001ec:	789a      	ldrb	r2, [r3, #2]
 80001ee:	7b7b      	ldrb	r3, [r7, #13]
 80001f0:	4013      	ands	r3, r2
 80001f2:	b2da      	uxtb	r2, r3
 80001f4:	7bfb      	ldrb	r3, [r7, #15]
 80001f6:	4313      	orrs	r3, r2
 80001f8:	73fb      	strb	r3, [r7, #15]
    tmppriority = tmppriority << 0x04;
 80001fa:	7bfb      	ldrb	r3, [r7, #15]
 80001fc:	011b      	lsls	r3, r3, #4
 80001fe:	73fb      	strb	r3, [r7, #15]
        
    NVIC->IP[NVIC_InitStruct->NVIC_IRQChannel] = tmppriority;
 8000200:	4a16      	ldr	r2, [pc, #88]	; (800025c <NVIC_Init+0xbc>)
 8000202:	687b      	ldr	r3, [r7, #4]
 8000204:	781b      	ldrb	r3, [r3, #0]
 8000206:	4413      	add	r3, r2
 8000208:	7bfa      	ldrb	r2, [r7, #15]
 800020a:	f883 2300 	strb.w	r2, [r3, #768]	; 0x300
    
    /* Enable the Selected IRQ Channels --------------------------------------*/
    NVIC->ISER[NVIC_InitStruct->NVIC_IRQChannel >> 0x05] =
 800020e:	4a13      	ldr	r2, [pc, #76]	; (800025c <NVIC_Init+0xbc>)
 8000210:	687b      	ldr	r3, [r7, #4]
 8000212:	781b      	ldrb	r3, [r3, #0]
 8000214:	095b      	lsrs	r3, r3, #5
 8000216:	b2db      	uxtb	r3, r3
 8000218:	4618      	mov	r0, r3
      (uint32_t)0x01 << (NVIC_InitStruct->NVIC_IRQChannel & (uint8_t)0x1F);
 800021a:	687b      	ldr	r3, [r7, #4]
 800021c:	781b      	ldrb	r3, [r3, #0]
 800021e:	f003 031f 	and.w	r3, r3, #31
 8000222:	2101      	movs	r1, #1
 8000224:	fa01 f303 	lsl.w	r3, r1, r3
    tmppriority = tmppriority << 0x04;
        
    NVIC->IP[NVIC_InitStruct->NVIC_IRQChannel] = tmppriority;
    
    /* Enable the Selected IRQ Channels --------------------------------------*/
    NVIC->ISER[NVIC_InitStruct->NVIC_IRQChannel >> 0x05] =
 8000228:	f842 3020 	str.w	r3, [r2, r0, lsl #2]
  {
    /* Disable the Selected IRQ Channels -------------------------------------*/
    NVIC->ICER[NVIC_InitStruct->NVIC_IRQChannel >> 0x05] =
      (uint32_t)0x01 << (NVIC_InitStruct->NVIC_IRQChannel & (uint8_t)0x1F);
  }
}
 800022c:	e00f      	b.n	800024e <NVIC_Init+0xae>
      (uint32_t)0x01 << (NVIC_InitStruct->NVIC_IRQChannel & (uint8_t)0x1F);
  }
  else
  {
    /* Disable the Selected IRQ Channels -------------------------------------*/
    NVIC->ICER[NVIC_InitStruct->NVIC_IRQChannel >> 0x05] =
 800022e:	490b      	ldr	r1, [pc, #44]	; (800025c <NVIC_Init+0xbc>)
 8000230:	687b      	ldr	r3, [r7, #4]
 8000232:	781b      	ldrb	r3, [r3, #0]
 8000234:	095b      	lsrs	r3, r3, #5
 8000236:	b2db      	uxtb	r3, r3
 8000238:	4618      	mov	r0, r3
      (uint32_t)0x01 << (NVIC_InitStruct->NVIC_IRQChannel & (uint8_t)0x1F);
 800023a:	687b      	ldr	r3, [r7, #4]
 800023c:	781b      	ldrb	r3, [r3, #0]
 800023e:	f003 031f 	and.w	r3, r3, #31
 8000242:	2201      	movs	r2, #1
 8000244:	409a      	lsls	r2, r3
      (uint32_t)0x01 << (NVIC_InitStruct->NVIC_IRQChannel & (uint8_t)0x1F);
  }
  else
  {
    /* Disable the Selected IRQ Channels -------------------------------------*/
    NVIC->ICER[NVIC_InitStruct->NVIC_IRQChannel >> 0x05] =
 8000246:	f100 0320 	add.w	r3, r0, #32
 800024a:	f841 2023 	str.w	r2, [r1, r3, lsl #2]
      (uint32_t)0x01 << (NVIC_InitStruct->NVIC_IRQChannel & (uint8_t)0x1F);
  }
}
 800024e:	bf00      	nop
 8000250:	3714      	adds	r7, #20
 8000252:	46bd      	mov	sp, r7
 8000254:	bc80      	pop	{r7}
 8000256:	4770      	bx	lr
 8000258:	e000ed00 	.word	0xe000ed00
 800025c:	e000e100 	.word	0xe000e100

08000260 <ADC_Init>:
  * @param  ADC_InitStruct: pointer to an ADC_InitTypeDef structure that contains 
  *         the configuration information for the specified ADC peripheral.
  * @retval None
  */
void ADC_Init(ADC_TypeDef* ADCx, ADC_InitTypeDef* ADC_InitStruct)               
{
 8000260:	b480      	push	{r7}
 8000262:	b085      	sub	sp, #20
 8000264:	af00      	add	r7, sp, #0
 8000266:	6078      	str	r0, [r7, #4]
 8000268:	6039      	str	r1, [r7, #0]
  uint32_t tmpreg1 = 0;
 800026a:	2300      	movs	r3, #0
 800026c:	60fb      	str	r3, [r7, #12]
  uint8_t tmpreg2 = 0;
 800026e:	2300      	movs	r3, #0
 8000270:	72fb      	strb	r3, [r7, #11]
  assert_param(IS_ADC_DATA_ALIGN(ADC_InitStruct->ADC_DataAlign)); 
  assert_param(IS_ADC_REGULAR_LENGTH(ADC_InitStruct->ADC_NbrOfConversion));
  
  /*---------------------------- ADCx CR1 Configuration -----------------*/
  /* Get the ADCx CR1 value */
  tmpreg1 = ADCx->CR1;
 8000272:	687b      	ldr	r3, [r7, #4]
 8000274:	685b      	ldr	r3, [r3, #4]
 8000276:	60fb      	str	r3, [r7, #12]
  /* Clear RES and SCAN bits */ 
  tmpreg1 &= CR1_CLEAR_MASK;
 8000278:	68fb      	ldr	r3, [r7, #12]
 800027a:	f023 7340 	bic.w	r3, r3, #50331648	; 0x3000000
 800027e:	f423 7380 	bic.w	r3, r3, #256	; 0x100
 8000282:	60fb      	str	r3, [r7, #12]
  /* Configure ADCx: scan conversion mode and resolution */
  /* Set SCAN bit according to ADC_ScanConvMode value */
  /* Set RES bit according to ADC_Resolution value */ 
  tmpreg1 |= (uint32_t)(((uint32_t)ADC_InitStruct->ADC_ScanConvMode << 8) | ADC_InitStruct->ADC_Resolution);
 8000284:	683b      	ldr	r3, [r7, #0]
 8000286:	791b      	ldrb	r3, [r3, #4]
 8000288:	021a      	lsls	r2, r3, #8
 800028a:	683b      	ldr	r3, [r7, #0]
 800028c:	681b      	ldr	r3, [r3, #0]
 800028e:	4313      	orrs	r3, r2
 8000290:	68fa      	ldr	r2, [r7, #12]
 8000292:	4313      	orrs	r3, r2
 8000294:	60fb      	str	r3, [r7, #12]
  /* Write to ADCx CR1 */
  ADCx->CR1 = tmpreg1;
 8000296:	687b      	ldr	r3, [r7, #4]
 8000298:	68fa      	ldr	r2, [r7, #12]
 800029a:	605a      	str	r2, [r3, #4]
  
  /*---------------------------- ADCx CR2 Configuration -----------------*/
  /* Get the ADCx CR2 value */
  tmpreg1 = ADCx->CR2;
 800029c:	687b      	ldr	r3, [r7, #4]
 800029e:	689b      	ldr	r3, [r3, #8]
 80002a0:	60fb      	str	r3, [r7, #12]
  /* Clear CONT, ALIGN, EXTEN and EXTSEL bits */
  tmpreg1 &= CR2_CLEAR_MASK;
 80002a2:	68fa      	ldr	r2, [r7, #12]
 80002a4:	4b17      	ldr	r3, [pc, #92]	; (8000304 <ADC_Init+0xa4>)
 80002a6:	4013      	ands	r3, r2
 80002a8:	60fb      	str	r3, [r7, #12]
  /* Configure ADCx: external trigger event and edge, data alignment and continuous conversion mode */
  /* Set ALIGN bit according to ADC_DataAlign value */
  /* Set EXTEN bits according to ADC_ExternalTrigConvEdge value */ 
  /* Set EXTSEL bits according to ADC_ExternalTrigConv value */
  /* Set CONT bit according to ADC_ContinuousConvMode value */
  tmpreg1 |= (uint32_t)(ADC_InitStruct->ADC_DataAlign | ADC_InitStruct->ADC_ExternalTrigConv | 
 80002aa:	683b      	ldr	r3, [r7, #0]
 80002ac:	691a      	ldr	r2, [r3, #16]
 80002ae:	683b      	ldr	r3, [r7, #0]
 80002b0:	68db      	ldr	r3, [r3, #12]
 80002b2:	431a      	orrs	r2, r3
              ADC_InitStruct->ADC_ExternalTrigConvEdge | ((uint32_t)ADC_InitStruct->ADC_ContinuousConvMode << 1));
 80002b4:	683b      	ldr	r3, [r7, #0]
 80002b6:	689b      	ldr	r3, [r3, #8]
  /* Configure ADCx: external trigger event and edge, data alignment and continuous conversion mode */
  /* Set ALIGN bit according to ADC_DataAlign value */
  /* Set EXTEN bits according to ADC_ExternalTrigConvEdge value */ 
  /* Set EXTSEL bits according to ADC_ExternalTrigConv value */
  /* Set CONT bit according to ADC_ContinuousConvMode value */
  tmpreg1 |= (uint32_t)(ADC_InitStruct->ADC_DataAlign | ADC_InitStruct->ADC_ExternalTrigConv | 
 80002b8:	431a      	orrs	r2, r3
              ADC_InitStruct->ADC_ExternalTrigConvEdge | ((uint32_t)ADC_InitStruct->ADC_ContinuousConvMode << 1));
 80002ba:	683b      	ldr	r3, [r7, #0]
 80002bc:	795b      	ldrb	r3, [r3, #5]
 80002be:	005b      	lsls	r3, r3, #1
  /* Configure ADCx: external trigger event and edge, data alignment and continuous conversion mode */
  /* Set ALIGN bit according to ADC_DataAlign value */
  /* Set EXTEN bits according to ADC_ExternalTrigConvEdge value */ 
  /* Set EXTSEL bits according to ADC_ExternalTrigConv value */
  /* Set CONT bit according to ADC_ContinuousConvMode value */
  tmpreg1 |= (uint32_t)(ADC_InitStruct->ADC_DataAlign | ADC_InitStruct->ADC_ExternalTrigConv | 
 80002c0:	4313      	orrs	r3, r2
 80002c2:	68fa      	ldr	r2, [r7, #12]
 80002c4:	4313      	orrs	r3, r2
 80002c6:	60fb      	str	r3, [r7, #12]
              ADC_InitStruct->ADC_ExternalTrigConvEdge | ((uint32_t)ADC_InitStruct->ADC_ContinuousConvMode << 1));
  /* Write to ADCx CR2 */
  ADCx->CR2 = tmpreg1;
 80002c8:	687b      	ldr	r3, [r7, #4]
 80002ca:	68fa      	ldr	r2, [r7, #12]
 80002cc:	609a      	str	r2, [r3, #8]
  
  /*---------------------------- ADCx SQR1 Configuration -----------------*/
  /* Get the ADCx SQR1 value */
  tmpreg1 = ADCx->SQR1;
 80002ce:	687b      	ldr	r3, [r7, #4]
 80002d0:	6b1b      	ldr	r3, [r3, #48]	; 0x30
 80002d2:	60fb      	str	r3, [r7, #12]
  /* Clear L bits */
  tmpreg1 &= SQR1_L_RESET;
 80002d4:	68fb      	ldr	r3, [r7, #12]
 80002d6:	f023 73f8 	bic.w	r3, r3, #32505856	; 0x1f00000
 80002da:	60fb      	str	r3, [r7, #12]
  /* Configure ADCx: regular channel sequence length */
  /* Set L bits according to ADC_NbrOfConversion value */ 
  tmpreg2 |= (uint8_t)(ADC_InitStruct->ADC_NbrOfConversion - (uint8_t)1);
 80002dc:	683b      	ldr	r3, [r7, #0]
 80002de:	7d1b      	ldrb	r3, [r3, #20]
 80002e0:	3b01      	subs	r3, #1
 80002e2:	b2da      	uxtb	r2, r3
 80002e4:	7afb      	ldrb	r3, [r7, #11]
 80002e6:	4313      	orrs	r3, r2
 80002e8:	72fb      	strb	r3, [r7, #11]
  tmpreg1 |= ((uint32_t)tmpreg2 << 20);
 80002ea:	7afb      	ldrb	r3, [r7, #11]
 80002ec:	051b      	lsls	r3, r3, #20
 80002ee:	68fa      	ldr	r2, [r7, #12]
 80002f0:	4313      	orrs	r3, r2
 80002f2:	60fb      	str	r3, [r7, #12]
  /* Write to ADCx SQR1 */
  ADCx->SQR1 = tmpreg1;
 80002f4:	687b      	ldr	r3, [r7, #4]
 80002f6:	68fa      	ldr	r2, [r7, #12]
 80002f8:	631a      	str	r2, [r3, #48]	; 0x30
}
 80002fa:	bf00      	nop
 80002fc:	3714      	adds	r7, #20
 80002fe:	46bd      	mov	sp, r7
 8000300:	bc80      	pop	{r7}
 8000302:	4770      	bx	lr
 8000304:	c0fff7fd 	.word	0xc0fff7fd

08000308 <ADC_StructInit>:
  * @param  ADC_InitStruct: pointer to an ADC_InitTypeDef structure which will 
  *         be initialized.
  * @retval None
  */
void ADC_StructInit(ADC_InitTypeDef* ADC_InitStruct)                            
{
 8000308:	b480      	push	{r7}
 800030a:	b083      	sub	sp, #12
 800030c:	af00      	add	r7, sp, #0
 800030e:	6078      	str	r0, [r7, #4]
  /* Reset ADC init structure parameters values */
  /* Initialize the ADC_Resolution member */
  ADC_InitStruct->ADC_Resolution = ADC_Resolution_12b;
 8000310:	687b      	ldr	r3, [r7, #4]
 8000312:	2200      	movs	r2, #0
 8000314:	601a      	str	r2, [r3, #0]

  /* Initialize the ADC_ScanConvMode member */
  ADC_InitStruct->ADC_ScanConvMode = DISABLE;
 8000316:	687b      	ldr	r3, [r7, #4]
 8000318:	2200      	movs	r2, #0
 800031a:	711a      	strb	r2, [r3, #4]

  /* Initialize the ADC_ContinuousConvMode member */
  ADC_InitStruct->ADC_ContinuousConvMode = DISABLE;
 800031c:	687b      	ldr	r3, [r7, #4]
 800031e:	2200      	movs	r2, #0
 8000320:	715a      	strb	r2, [r3, #5]

  /* Initialize the ADC_ExternalTrigConvEdge member */
  ADC_InitStruct->ADC_ExternalTrigConvEdge = ADC_ExternalTrigConvEdge_None;
 8000322:	687b      	ldr	r3, [r7, #4]
 8000324:	2200      	movs	r2, #0
 8000326:	609a      	str	r2, [r3, #8]

  /* Initialize the ADC_ExternalTrigConv member */
  ADC_InitStruct->ADC_ExternalTrigConv = ADC_ExternalTrigConv_T2_CC2;
 8000328:	687b      	ldr	r3, [r7, #4]
 800032a:	f04f 7240 	mov.w	r2, #50331648	; 0x3000000
 800032e:	60da      	str	r2, [r3, #12]

  /* Initialize the ADC_DataAlign member */
  ADC_InitStruct->ADC_DataAlign = ADC_DataAlign_Right;
 8000330:	687b      	ldr	r3, [r7, #4]
 8000332:	2200      	movs	r2, #0
 8000334:	611a      	str	r2, [r3, #16]

  /* Initialize the ADC_NbrOfConversion member */
  ADC_InitStruct->ADC_NbrOfConversion = 1;
 8000336:	687b      	ldr	r3, [r7, #4]
 8000338:	2201      	movs	r2, #1
 800033a:	751a      	strb	r2, [r3, #20]
}
 800033c:	bf00      	nop
 800033e:	370c      	adds	r7, #12
 8000340:	46bd      	mov	sp, r7
 8000342:	bc80      	pop	{r7}
 8000344:	4770      	bx	lr
 8000346:	bf00      	nop

08000348 <ADC_Cmd>:
  * @param  NewState: new state of the ADCx peripheral.
  *         This parameter can be: ENABLE or DISABLE.
  * @retval None
  */
void ADC_Cmd(ADC_TypeDef* ADCx, FunctionalState NewState)
{
 8000348:	b480      	push	{r7}
 800034a:	b083      	sub	sp, #12
 800034c:	af00      	add	r7, sp, #0
 800034e:	6078      	str	r0, [r7, #4]
 8000350:	460b      	mov	r3, r1
 8000352:	70fb      	strb	r3, [r7, #3]
  /* Check the parameters */
  assert_param(IS_ADC_ALL_PERIPH(ADCx));
  assert_param(IS_FUNCTIONAL_STATE(NewState));

  if (NewState != DISABLE)
 8000354:	78fb      	ldrb	r3, [r7, #3]
 8000356:	2b00      	cmp	r3, #0
 8000358:	d006      	beq.n	8000368 <ADC_Cmd+0x20>
  {
    /* Set the ADON bit to wake up the ADC from power down mode */
    ADCx->CR2 |= (uint32_t)ADC_CR2_ADON;
 800035a:	687b      	ldr	r3, [r7, #4]
 800035c:	689b      	ldr	r3, [r3, #8]
 800035e:	f043 0201 	orr.w	r2, r3, #1
 8000362:	687b      	ldr	r3, [r7, #4]
 8000364:	609a      	str	r2, [r3, #8]
  else
  {
    /* Disable the selected ADC peripheral */
    ADCx->CR2 &= (uint32_t)(~ADC_CR2_ADON);
  }
}
 8000366:	e005      	b.n	8000374 <ADC_Cmd+0x2c>
    ADCx->CR2 |= (uint32_t)ADC_CR2_ADON;
  }
  else
  {
    /* Disable the selected ADC peripheral */
    ADCx->CR2 &= (uint32_t)(~ADC_CR2_ADON);
 8000368:	687b      	ldr	r3, [r7, #4]
 800036a:	689b      	ldr	r3, [r3, #8]
 800036c:	f023 0201 	bic.w	r2, r3, #1
 8000370:	687b      	ldr	r3, [r7, #4]
 8000372:	609a      	str	r2, [r3, #8]
  }
}
 8000374:	bf00      	nop
 8000376:	370c      	adds	r7, #12
 8000378:	46bd      	mov	sp, r7
 800037a:	bc80      	pop	{r7}
 800037c:	4770      	bx	lr
 800037e:	bf00      	nop

08000380 <ADC_RegularChannelConfig>:
  *     @arg ADC_SampleTime_192Cycles: Sample time equal to 192 cycles	
  *     @arg ADC_SampleTime_384Cycles: Sample time equal to 384 cycles	
  * @retval None
  */
void ADC_RegularChannelConfig(ADC_TypeDef* ADCx, uint8_t ADC_Channel, uint8_t Rank, uint8_t ADC_SampleTime)
{
 8000380:	b480      	push	{r7}
 8000382:	b085      	sub	sp, #20
 8000384:	af00      	add	r7, sp, #0
 8000386:	6078      	str	r0, [r7, #4]
 8000388:	4608      	mov	r0, r1
 800038a:	4611      	mov	r1, r2
 800038c:	461a      	mov	r2, r3
 800038e:	4603      	mov	r3, r0
 8000390:	70fb      	strb	r3, [r7, #3]
 8000392:	460b      	mov	r3, r1
 8000394:	70bb      	strb	r3, [r7, #2]
 8000396:	4613      	mov	r3, r2
 8000398:	707b      	strb	r3, [r7, #1]
  uint32_t tmpreg1 = 0, tmpreg2 = 0;
 800039a:	2300      	movs	r3, #0
 800039c:	60fb      	str	r3, [r7, #12]
 800039e:	2300      	movs	r3, #0
 80003a0:	60bb      	str	r3, [r7, #8]
  assert_param(IS_ADC_CHANNEL(ADC_Channel));
  assert_param(IS_ADC_REGULAR_RANK(Rank));
  assert_param(IS_ADC_SAMPLE_TIME(ADC_SampleTime));

  /* If ADC_Channel_30 or ADC_Channel_31 is selected */
  if (ADC_Channel > ADC_Channel_29)
 80003a2:	78fb      	ldrb	r3, [r7, #3]
 80003a4:	2b1d      	cmp	r3, #29
 80003a6:	d923      	bls.n	80003f0 <ADC_RegularChannelConfig+0x70>
  {
    /* Get the old register value */
    tmpreg1 = ADCx->SMPR0;
 80003a8:	687b      	ldr	r3, [r7, #4]
 80003aa:	6ddb      	ldr	r3, [r3, #92]	; 0x5c
 80003ac:	60fb      	str	r3, [r7, #12]
    /* Calculate the mask to clear */
    tmpreg2 = SMPR0_SMP_SET << (3 * (ADC_Channel - 30));
 80003ae:	78fb      	ldrb	r3, [r7, #3]
 80003b0:	f1a3 021e 	sub.w	r2, r3, #30
 80003b4:	4613      	mov	r3, r2
 80003b6:	005b      	lsls	r3, r3, #1
 80003b8:	4413      	add	r3, r2
 80003ba:	2207      	movs	r2, #7
 80003bc:	fa02 f303 	lsl.w	r3, r2, r3
 80003c0:	60bb      	str	r3, [r7, #8]
    /* Clear the old sample time */
    tmpreg1 &= ~tmpreg2;
 80003c2:	68bb      	ldr	r3, [r7, #8]
 80003c4:	43db      	mvns	r3, r3
 80003c6:	68fa      	ldr	r2, [r7, #12]
 80003c8:	4013      	ands	r3, r2
 80003ca:	60fb      	str	r3, [r7, #12]
    /* Calculate the mask to set */
    tmpreg2 = (uint32_t)ADC_SampleTime << (3 * (ADC_Channel - 30));
 80003cc:	7879      	ldrb	r1, [r7, #1]
 80003ce:	78fb      	ldrb	r3, [r7, #3]
 80003d0:	f1a3 021e 	sub.w	r2, r3, #30
 80003d4:	4613      	mov	r3, r2
 80003d6:	005b      	lsls	r3, r3, #1
 80003d8:	4413      	add	r3, r2
 80003da:	fa01 f303 	lsl.w	r3, r1, r3
 80003de:	60bb      	str	r3, [r7, #8]
    /* Set the new sample time */
    tmpreg1 |= tmpreg2;
 80003e0:	68fa      	ldr	r2, [r7, #12]
 80003e2:	68bb      	ldr	r3, [r7, #8]
 80003e4:	4313      	orrs	r3, r2
 80003e6:	60fb      	str	r3, [r7, #12]
    /* Store the new register value */
    ADCx->SMPR0 = tmpreg1;
 80003e8:	687b      	ldr	r3, [r7, #4]
 80003ea:	68fa      	ldr	r2, [r7, #12]
 80003ec:	65da      	str	r2, [r3, #92]	; 0x5c
 80003ee:	e06c      	b.n	80004ca <ADC_RegularChannelConfig+0x14a>
  }
  /* If ADC_Channel_20 ... ADC_Channel_29 is selected */
  else if (ADC_Channel > ADC_Channel_19)
 80003f0:	78fb      	ldrb	r3, [r7, #3]
 80003f2:	2b13      	cmp	r3, #19
 80003f4:	d923      	bls.n	800043e <ADC_RegularChannelConfig+0xbe>
  {
    /* Get the old register value */
    tmpreg1 = ADCx->SMPR1;
 80003f6:	687b      	ldr	r3, [r7, #4]
 80003f8:	68db      	ldr	r3, [r3, #12]
 80003fa:	60fb      	str	r3, [r7, #12]
    /* Calculate the mask to clear */
    tmpreg2 = SMPR1_SMP_SET << (3 * (ADC_Channel - 20));
 80003fc:	78fb      	ldrb	r3, [r7, #3]
 80003fe:	f1a3 0214 	sub.w	r2, r3, #20
 8000402:	4613      	mov	r3, r2
 8000404:	005b      	lsls	r3, r3, #1
 8000406:	4413      	add	r3, r2
 8000408:	2207      	movs	r2, #7
 800040a:	fa02 f303 	lsl.w	r3, r2, r3
 800040e:	60bb      	str	r3, [r7, #8]
    /* Clear the old sample time */
    tmpreg1 &= ~tmpreg2;
 8000410:	68bb      	ldr	r3, [r7, #8]
 8000412:	43db      	mvns	r3, r3
 8000414:	68fa      	ldr	r2, [r7, #12]
 8000416:	4013      	ands	r3, r2
 8000418:	60fb      	str	r3, [r7, #12]
    /* Calculate the mask to set */
    tmpreg2 = (uint32_t)ADC_SampleTime << (3 * (ADC_Channel - 20));
 800041a:	7879      	ldrb	r1, [r7, #1]
 800041c:	78fb      	ldrb	r3, [r7, #3]
 800041e:	f1a3 0214 	sub.w	r2, r3, #20
 8000422:	4613      	mov	r3, r2
 8000424:	005b      	lsls	r3, r3, #1
 8000426:	4413      	add	r3, r2
 8000428:	fa01 f303 	lsl.w	r3, r1, r3
 800042c:	60bb      	str	r3, [r7, #8]
    /* Set the new sample time */
    tmpreg1 |= tmpreg2;
 800042e:	68fa      	ldr	r2, [r7, #12]
 8000430:	68bb      	ldr	r3, [r7, #8]
 8000432:	4313      	orrs	r3, r2
 8000434:	60fb      	str	r3, [r7, #12]
    /* Store the new register value */
    ADCx->SMPR1 = tmpreg1;
 8000436:	687b      	ldr	r3, [r7, #4]
 8000438:	68fa      	ldr	r2, [r7, #12]
 800043a:	60da      	str	r2, [r3, #12]
 800043c:	e045      	b.n	80004ca <ADC_RegularChannelConfig+0x14a>
  }
  /* If ADC_Channel_10 ... ADC_Channel_19 is selected */
  else if (ADC_Channel > ADC_Channel_9)
 800043e:	78fb      	ldrb	r3, [r7, #3]
 8000440:	2b09      	cmp	r3, #9
 8000442:	d923      	bls.n	800048c <ADC_RegularChannelConfig+0x10c>
  {
    /* Get the old register value */
    tmpreg1 = ADCx->SMPR2;
 8000444:	687b      	ldr	r3, [r7, #4]
 8000446:	691b      	ldr	r3, [r3, #16]
 8000448:	60fb      	str	r3, [r7, #12]
    /* Calculate the mask to clear */
    tmpreg2 = SMPR2_SMP_SET << (3 * (ADC_Channel - 10));
 800044a:	78fb      	ldrb	r3, [r7, #3]
 800044c:	f1a3 020a 	sub.w	r2, r3, #10
 8000450:	4613      	mov	r3, r2
 8000452:	005b      	lsls	r3, r3, #1
 8000454:	4413      	add	r3, r2
 8000456:	2207      	movs	r2, #7
 8000458:	fa02 f303 	lsl.w	r3, r2, r3
 800045c:	60bb      	str	r3, [r7, #8]
    /* Clear the old sample time */
    tmpreg1 &= ~tmpreg2;
 800045e:	68bb      	ldr	r3, [r7, #8]
 8000460:	43db      	mvns	r3, r3
 8000462:	68fa      	ldr	r2, [r7, #12]
 8000464:	4013      	ands	r3, r2
 8000466:	60fb      	str	r3, [r7, #12]
    /* Calculate the mask to set */
    tmpreg2 = (uint32_t)ADC_SampleTime << (3 * (ADC_Channel - 10));
 8000468:	7879      	ldrb	r1, [r7, #1]
 800046a:	78fb      	ldrb	r3, [r7, #3]
 800046c:	f1a3 020a 	sub.w	r2, r3, #10
 8000470:	4613      	mov	r3, r2
 8000472:	005b      	lsls	r3, r3, #1
 8000474:	4413      	add	r3, r2
 8000476:	fa01 f303 	lsl.w	r3, r1, r3
 800047a:	60bb      	str	r3, [r7, #8]
    /* Set the new sample time */
    tmpreg1 |= tmpreg2;
 800047c:	68fa      	ldr	r2, [r7, #12]
 800047e:	68bb      	ldr	r3, [r7, #8]
 8000480:	4313      	orrs	r3, r2
 8000482:	60fb      	str	r3, [r7, #12]
    /* Store the new register value */
    ADCx->SMPR2 = tmpreg1;
 8000484:	687b      	ldr	r3, [r7, #4]
 8000486:	68fa      	ldr	r2, [r7, #12]
 8000488:	611a      	str	r2, [r3, #16]
 800048a:	e01e      	b.n	80004ca <ADC_RegularChannelConfig+0x14a>
  }
  else /* ADC_Channel include in ADC_Channel_[0..9] */
  {
    /* Get the old register value */
    tmpreg1 = ADCx->SMPR3;
 800048c:	687b      	ldr	r3, [r7, #4]
 800048e:	695b      	ldr	r3, [r3, #20]
 8000490:	60fb      	str	r3, [r7, #12]
    /* Calculate the mask to clear */
    tmpreg2 = SMPR3_SMP_SET << (3 * ADC_Channel);
 8000492:	78fa      	ldrb	r2, [r7, #3]
 8000494:	4613      	mov	r3, r2
 8000496:	005b      	lsls	r3, r3, #1
 8000498:	4413      	add	r3, r2
 800049a:	2207      	movs	r2, #7
 800049c:	fa02 f303 	lsl.w	r3, r2, r3
 80004a0:	60bb      	str	r3, [r7, #8]
    /* Clear the old sample time */
    tmpreg1 &= ~tmpreg2;
 80004a2:	68bb      	ldr	r3, [r7, #8]
 80004a4:	43db      	mvns	r3, r3
 80004a6:	68fa      	ldr	r2, [r7, #12]
 80004a8:	4013      	ands	r3, r2
 80004aa:	60fb      	str	r3, [r7, #12]
    /* Calculate the mask to set */
    tmpreg2 = (uint32_t)ADC_SampleTime << (3 * ADC_Channel);
 80004ac:	7879      	ldrb	r1, [r7, #1]
 80004ae:	78fa      	ldrb	r2, [r7, #3]
 80004b0:	4613      	mov	r3, r2
 80004b2:	005b      	lsls	r3, r3, #1
 80004b4:	4413      	add	r3, r2
 80004b6:	fa01 f303 	lsl.w	r3, r1, r3
 80004ba:	60bb      	str	r3, [r7, #8]
    /* Set the new sample time */
    tmpreg1 |= tmpreg2;
 80004bc:	68fa      	ldr	r2, [r7, #12]
 80004be:	68bb      	ldr	r3, [r7, #8]
 80004c0:	4313      	orrs	r3, r2
 80004c2:	60fb      	str	r3, [r7, #12]
    /* Store the new register value */
    ADCx->SMPR3 = tmpreg1;
 80004c4:	687b      	ldr	r3, [r7, #4]
 80004c6:	68fa      	ldr	r2, [r7, #12]
 80004c8:	615a      	str	r2, [r3, #20]
  }
  /* For Rank 1 to 6 */
  if (Rank < 7)
 80004ca:	78bb      	ldrb	r3, [r7, #2]
 80004cc:	2b06      	cmp	r3, #6
 80004ce:	d821      	bhi.n	8000514 <ADC_RegularChannelConfig+0x194>
  {
    /* Get the old register value */
    tmpreg1 = ADCx->SQR5;
 80004d0:	687b      	ldr	r3, [r7, #4]
 80004d2:	6c1b      	ldr	r3, [r3, #64]	; 0x40
 80004d4:	60fb      	str	r3, [r7, #12]
    /* Calculate the mask to clear */
    tmpreg2 = SQR5_SQ_SET << (5 * (Rank - 1));
 80004d6:	78bb      	ldrb	r3, [r7, #2]
 80004d8:	1e5a      	subs	r2, r3, #1
 80004da:	4613      	mov	r3, r2
 80004dc:	009b      	lsls	r3, r3, #2
 80004de:	4413      	add	r3, r2
 80004e0:	221f      	movs	r2, #31
 80004e2:	fa02 f303 	lsl.w	r3, r2, r3
 80004e6:	60bb      	str	r3, [r7, #8]
    /* Clear the old SQx bits for the selected rank */
    tmpreg1 &= ~tmpreg2;
 80004e8:	68bb      	ldr	r3, [r7, #8]
 80004ea:	43db      	mvns	r3, r3
 80004ec:	68fa      	ldr	r2, [r7, #12]
 80004ee:	4013      	ands	r3, r2
 80004f0:	60fb      	str	r3, [r7, #12]
    /* Calculate the mask to set */
    tmpreg2 = (uint32_t)ADC_Channel << (5 * (Rank - 1));
 80004f2:	78f9      	ldrb	r1, [r7, #3]
 80004f4:	78bb      	ldrb	r3, [r7, #2]
 80004f6:	1e5a      	subs	r2, r3, #1
 80004f8:	4613      	mov	r3, r2
 80004fa:	009b      	lsls	r3, r3, #2
 80004fc:	4413      	add	r3, r2
 80004fe:	fa01 f303 	lsl.w	r3, r1, r3
 8000502:	60bb      	str	r3, [r7, #8]
    /* Set the SQx bits for the selected rank */
    tmpreg1 |= tmpreg2;
 8000504:	68fa      	ldr	r2, [r7, #12]
 8000506:	68bb      	ldr	r3, [r7, #8]
 8000508:	4313      	orrs	r3, r2
 800050a:	60fb      	str	r3, [r7, #12]
    /* Store the new register value */
    ADCx->SQR5 = tmpreg1;
 800050c:	687b      	ldr	r3, [r7, #4]
 800050e:	68fa      	ldr	r2, [r7, #12]
 8000510:	641a      	str	r2, [r3, #64]	; 0x40
    /* Set the SQx bits for the selected rank */
    tmpreg1 |= tmpreg2;
    /* Store the new register value */
    ADCx->SQR1 = tmpreg1;
  }
}
 8000512:	e095      	b.n	8000640 <ADC_RegularChannelConfig+0x2c0>
    tmpreg1 |= tmpreg2;
    /* Store the new register value */
    ADCx->SQR5 = tmpreg1;
  }
  /* For Rank 7 to 12 */
  else if (Rank < 13)
 8000514:	78bb      	ldrb	r3, [r7, #2]
 8000516:	2b0c      	cmp	r3, #12
 8000518:	d821      	bhi.n	800055e <ADC_RegularChannelConfig+0x1de>
  {
    /* Get the old register value */
    tmpreg1 = ADCx->SQR4;
 800051a:	687b      	ldr	r3, [r7, #4]
 800051c:	6bdb      	ldr	r3, [r3, #60]	; 0x3c
 800051e:	60fb      	str	r3, [r7, #12]
    /* Calculate the mask to clear */
    tmpreg2 = SQR4_SQ_SET << (5 * (Rank - 7));
 8000520:	78bb      	ldrb	r3, [r7, #2]
 8000522:	1fda      	subs	r2, r3, #7
 8000524:	4613      	mov	r3, r2
 8000526:	009b      	lsls	r3, r3, #2
 8000528:	4413      	add	r3, r2
 800052a:	221f      	movs	r2, #31
 800052c:	fa02 f303 	lsl.w	r3, r2, r3
 8000530:	60bb      	str	r3, [r7, #8]
    /* Clear the old SQx bits for the selected rank */
    tmpreg1 &= ~tmpreg2;
 8000532:	68bb      	ldr	r3, [r7, #8]
 8000534:	43db      	mvns	r3, r3
 8000536:	68fa      	ldr	r2, [r7, #12]
 8000538:	4013      	ands	r3, r2
 800053a:	60fb      	str	r3, [r7, #12]
    /* Calculate the mask to set */
    tmpreg2 = (uint32_t)ADC_Channel << (5 * (Rank - 7));
 800053c:	78f9      	ldrb	r1, [r7, #3]
 800053e:	78bb      	ldrb	r3, [r7, #2]
 8000540:	1fda      	subs	r2, r3, #7
 8000542:	4613      	mov	r3, r2
 8000544:	009b      	lsls	r3, r3, #2
 8000546:	4413      	add	r3, r2
 8000548:	fa01 f303 	lsl.w	r3, r1, r3
 800054c:	60bb      	str	r3, [r7, #8]
    /* Set the SQx bits for the selected rank */
    tmpreg1 |= tmpreg2;
 800054e:	68fa      	ldr	r2, [r7, #12]
 8000550:	68bb      	ldr	r3, [r7, #8]
 8000552:	4313      	orrs	r3, r2
 8000554:	60fb      	str	r3, [r7, #12]
    /* Store the new register value */
    ADCx->SQR4 = tmpreg1;
 8000556:	687b      	ldr	r3, [r7, #4]
 8000558:	68fa      	ldr	r2, [r7, #12]
 800055a:	63da      	str	r2, [r3, #60]	; 0x3c
    /* Set the SQx bits for the selected rank */
    tmpreg1 |= tmpreg2;
    /* Store the new register value */
    ADCx->SQR1 = tmpreg1;
  }
}
 800055c:	e070      	b.n	8000640 <ADC_RegularChannelConfig+0x2c0>
    tmpreg1 |= tmpreg2;
    /* Store the new register value */
    ADCx->SQR4 = tmpreg1;
  }  
  /* For Rank 13 to 18 */
  else if (Rank < 19)
 800055e:	78bb      	ldrb	r3, [r7, #2]
 8000560:	2b12      	cmp	r3, #18
 8000562:	d823      	bhi.n	80005ac <ADC_RegularChannelConfig+0x22c>
  {
    /* Get the old register value */
    tmpreg1 = ADCx->SQR3;
 8000564:	687b      	ldr	r3, [r7, #4]
 8000566:	6b9b      	ldr	r3, [r3, #56]	; 0x38
 8000568:	60fb      	str	r3, [r7, #12]
    /* Calculate the mask to clear */
    tmpreg2 = SQR3_SQ_SET << (5 * (Rank - 13));
 800056a:	78bb      	ldrb	r3, [r7, #2]
 800056c:	f1a3 020d 	sub.w	r2, r3, #13
 8000570:	4613      	mov	r3, r2
 8000572:	009b      	lsls	r3, r3, #2
 8000574:	4413      	add	r3, r2
 8000576:	221f      	movs	r2, #31
 8000578:	fa02 f303 	lsl.w	r3, r2, r3
 800057c:	60bb      	str	r3, [r7, #8]
    /* Clear the old SQx bits for the selected rank */
    tmpreg1 &= ~tmpreg2;
 800057e:	68bb      	ldr	r3, [r7, #8]
 8000580:	43db      	mvns	r3, r3
 8000582:	68fa      	ldr	r2, [r7, #12]
 8000584:	4013      	ands	r3, r2
 8000586:	60fb      	str	r3, [r7, #12]
    /* Calculate the mask to set */
    tmpreg2 = (uint32_t)ADC_Channel << (5 * (Rank - 13));
 8000588:	78f9      	ldrb	r1, [r7, #3]
 800058a:	78bb      	ldrb	r3, [r7, #2]
 800058c:	f1a3 020d 	sub.w	r2, r3, #13
 8000590:	4613      	mov	r3, r2
 8000592:	009b      	lsls	r3, r3, #2
 8000594:	4413      	add	r3, r2
 8000596:	fa01 f303 	lsl.w	r3, r1, r3
 800059a:	60bb      	str	r3, [r7, #8]
    /* Set the SQx bits for the selected rank */
    tmpreg1 |= tmpreg2;
 800059c:	68fa      	ldr	r2, [r7, #12]
 800059e:	68bb      	ldr	r3, [r7, #8]
 80005a0:	4313      	orrs	r3, r2
 80005a2:	60fb      	str	r3, [r7, #12]
    /* Store the new register value */
    ADCx->SQR3 = tmpreg1;
 80005a4:	687b      	ldr	r3, [r7, #4]
 80005a6:	68fa      	ldr	r2, [r7, #12]
 80005a8:	639a      	str	r2, [r3, #56]	; 0x38
    /* Set the SQx bits for the selected rank */
    tmpreg1 |= tmpreg2;
    /* Store the new register value */
    ADCx->SQR1 = tmpreg1;
  }
}
 80005aa:	e049      	b.n	8000640 <ADC_RegularChannelConfig+0x2c0>
    /* Store the new register value */
    ADCx->SQR3 = tmpreg1;
  }
    
  /* For Rank 19 to 24 */
  else if (Rank < 25)
 80005ac:	78bb      	ldrb	r3, [r7, #2]
 80005ae:	2b18      	cmp	r3, #24
 80005b0:	d823      	bhi.n	80005fa <ADC_RegularChannelConfig+0x27a>
  {
    /* Get the old register value */
    tmpreg1 = ADCx->SQR2;
 80005b2:	687b      	ldr	r3, [r7, #4]
 80005b4:	6b5b      	ldr	r3, [r3, #52]	; 0x34
 80005b6:	60fb      	str	r3, [r7, #12]
    /* Calculate the mask to clear */
    tmpreg2 = SQR2_SQ_SET << (5 * (Rank - 19));
 80005b8:	78bb      	ldrb	r3, [r7, #2]
 80005ba:	f1a3 0213 	sub.w	r2, r3, #19
 80005be:	4613      	mov	r3, r2
 80005c0:	009b      	lsls	r3, r3, #2
 80005c2:	4413      	add	r3, r2
 80005c4:	221f      	movs	r2, #31
 80005c6:	fa02 f303 	lsl.w	r3, r2, r3
 80005ca:	60bb      	str	r3, [r7, #8]
    /* Clear the old SQx bits for the selected rank */
    tmpreg1 &= ~tmpreg2;
 80005cc:	68bb      	ldr	r3, [r7, #8]
 80005ce:	43db      	mvns	r3, r3
 80005d0:	68fa      	ldr	r2, [r7, #12]
 80005d2:	4013      	ands	r3, r2
 80005d4:	60fb      	str	r3, [r7, #12]
    /* Calculate the mask to set */
    tmpreg2 = (uint32_t)ADC_Channel << (5 * (Rank - 19));
 80005d6:	78f9      	ldrb	r1, [r7, #3]
 80005d8:	78bb      	ldrb	r3, [r7, #2]
 80005da:	f1a3 0213 	sub.w	r2, r3, #19
 80005de:	4613      	mov	r3, r2
 80005e0:	009b      	lsls	r3, r3, #2
 80005e2:	4413      	add	r3, r2
 80005e4:	fa01 f303 	lsl.w	r3, r1, r3
 80005e8:	60bb      	str	r3, [r7, #8]
    /* Set the SQx bits for the selected rank */
    tmpreg1 |= tmpreg2;
 80005ea:	68fa      	ldr	r2, [r7, #12]
 80005ec:	68bb      	ldr	r3, [r7, #8]
 80005ee:	4313      	orrs	r3, r2
 80005f0:	60fb      	str	r3, [r7, #12]
    /* Store the new register value */
    ADCx->SQR2 = tmpreg1;
 80005f2:	687b      	ldr	r3, [r7, #4]
 80005f4:	68fa      	ldr	r2, [r7, #12]
 80005f6:	635a      	str	r2, [r3, #52]	; 0x34
    /* Set the SQx bits for the selected rank */
    tmpreg1 |= tmpreg2;
    /* Store the new register value */
    ADCx->SQR1 = tmpreg1;
  }
}
 80005f8:	e022      	b.n	8000640 <ADC_RegularChannelConfig+0x2c0>
  
  /* For Rank 25 to 28 */
  else
  {
    /* Get the old register value */
    tmpreg1 = ADCx->SQR1;
 80005fa:	687b      	ldr	r3, [r7, #4]
 80005fc:	6b1b      	ldr	r3, [r3, #48]	; 0x30
 80005fe:	60fb      	str	r3, [r7, #12]
    /* Calculate the mask to clear */
    tmpreg2 = SQR1_SQ_SET << (5 * (Rank - 25));
 8000600:	78bb      	ldrb	r3, [r7, #2]
 8000602:	f1a3 0219 	sub.w	r2, r3, #25
 8000606:	4613      	mov	r3, r2
 8000608:	009b      	lsls	r3, r3, #2
 800060a:	4413      	add	r3, r2
 800060c:	221f      	movs	r2, #31
 800060e:	fa02 f303 	lsl.w	r3, r2, r3
 8000612:	60bb      	str	r3, [r7, #8]
    /* Clear the old SQx bits for the selected rank */
    tmpreg1 &= ~tmpreg2;
 8000614:	68bb      	ldr	r3, [r7, #8]
 8000616:	43db      	mvns	r3, r3
 8000618:	68fa      	ldr	r2, [r7, #12]
 800061a:	4013      	ands	r3, r2
 800061c:	60fb      	str	r3, [r7, #12]
    /* Calculate the mask to set */
    tmpreg2 = (uint32_t)ADC_Channel << (5 * (Rank - 25));
 800061e:	78f9      	ldrb	r1, [r7, #3]
 8000620:	78bb      	ldrb	r3, [r7, #2]
 8000622:	f1a3 0219 	sub.w	r2, r3, #25
 8000626:	4613      	mov	r3, r2
 8000628:	009b      	lsls	r3, r3, #2
 800062a:	4413      	add	r3, r2
 800062c:	fa01 f303 	lsl.w	r3, r1, r3
 8000630:	60bb      	str	r3, [r7, #8]
    /* Set the SQx bits for the selected rank */
    tmpreg1 |= tmpreg2;
 8000632:	68fa      	ldr	r2, [r7, #12]
 8000634:	68bb      	ldr	r3, [r7, #8]
 8000636:	4313      	orrs	r3, r2
 8000638:	60fb      	str	r3, [r7, #12]
    /* Store the new register value */
    ADCx->SQR1 = tmpreg1;
 800063a:	687b      	ldr	r3, [r7, #4]
 800063c:	68fa      	ldr	r2, [r7, #12]
 800063e:	631a      	str	r2, [r3, #48]	; 0x30
  }
}
 8000640:	bf00      	nop
 8000642:	3714      	adds	r7, #20
 8000644:	46bd      	mov	sp, r7
 8000646:	bc80      	pop	{r7}
 8000648:	4770      	bx	lr
 800064a:	bf00      	nop

0800064c <ADC_SoftwareStartConv>:
  * @brief  Enables the selected ADC software start conversion of the regular channels.
  * @param  ADCx: where x can be 1 to select the ADC1 peripheral.
  * @retval None
  */
void ADC_SoftwareStartConv(ADC_TypeDef* ADCx)
{
 800064c:	b480      	push	{r7}
 800064e:	b083      	sub	sp, #12
 8000650:	af00      	add	r7, sp, #0
 8000652:	6078      	str	r0, [r7, #4]
  /* Check the parameters */
  assert_param(IS_ADC_ALL_PERIPH(ADCx));

  /* Enable the selected ADC conversion for regular group */
  ADCx->CR2 |= (uint32_t)ADC_CR2_SWSTART;
 8000654:	687b      	ldr	r3, [r7, #4]
 8000656:	689b      	ldr	r3, [r3, #8]
 8000658:	f043 4280 	orr.w	r2, r3, #1073741824	; 0x40000000
 800065c:	687b      	ldr	r3, [r7, #4]
 800065e:	609a      	str	r2, [r3, #8]
}
 8000660:	bf00      	nop
 8000662:	370c      	adds	r7, #12
 8000664:	46bd      	mov	sp, r7
 8000666:	bc80      	pop	{r7}
 8000668:	4770      	bx	lr
 800066a:	bf00      	nop

0800066c <ADC_GetConversionValue>:
  * @brief  Returns the last ADCx conversion result data for regular channel.
  * @param  ADCx: where x can be 1 to select the ADC1 peripheral.
  * @retval The Data conversion value.
  */
uint16_t ADC_GetConversionValue(ADC_TypeDef* ADCx)
{
 800066c:	b480      	push	{r7}
 800066e:	b083      	sub	sp, #12
 8000670:	af00      	add	r7, sp, #0
 8000672:	6078      	str	r0, [r7, #4]
  /* Check the parameters */
  assert_param(IS_ADC_ALL_PERIPH(ADCx));

  /* Return the selected ADC conversion value */
  return (uint16_t) ADCx->DR;
 8000674:	687b      	ldr	r3, [r7, #4]
 8000676:	6d9b      	ldr	r3, [r3, #88]	; 0x58
 8000678:	b29b      	uxth	r3, r3
}
 800067a:	4618      	mov	r0, r3
 800067c:	370c      	adds	r7, #12
 800067e:	46bd      	mov	sp, r7
 8000680:	bc80      	pop	{r7}
 8000682:	4770      	bx	lr

08000684 <ADC_ITConfig>:
  * @param  NewState: new state of the specified ADC interrupts.
  *         This parameter can be: ENABLE or DISABLE.
  * @retval None
  */
void ADC_ITConfig(ADC_TypeDef* ADCx, uint16_t ADC_IT, FunctionalState NewState)  
{
 8000684:	b480      	push	{r7}
 8000686:	b085      	sub	sp, #20
 8000688:	af00      	add	r7, sp, #0
 800068a:	6078      	str	r0, [r7, #4]
 800068c:	460b      	mov	r3, r1
 800068e:	807b      	strh	r3, [r7, #2]
 8000690:	4613      	mov	r3, r2
 8000692:	707b      	strb	r3, [r7, #1]
  uint32_t itmask = 0;
 8000694:	2300      	movs	r3, #0
 8000696:	60fb      	str	r3, [r7, #12]
  assert_param(IS_ADC_ALL_PERIPH(ADCx));
  assert_param(IS_FUNCTIONAL_STATE(NewState));
  assert_param(IS_ADC_IT(ADC_IT)); 

  /* Get the ADC IT index */
  itmask = (uint8_t)ADC_IT;
 8000698:	887b      	ldrh	r3, [r7, #2]
 800069a:	b2db      	uxtb	r3, r3
 800069c:	60fb      	str	r3, [r7, #12]
  itmask = (uint32_t)0x01 << itmask;    
 800069e:	2201      	movs	r2, #1
 80006a0:	68fb      	ldr	r3, [r7, #12]
 80006a2:	fa02 f303 	lsl.w	r3, r2, r3
 80006a6:	60fb      	str	r3, [r7, #12]

  if (NewState != DISABLE)
 80006a8:	787b      	ldrb	r3, [r7, #1]
 80006aa:	2b00      	cmp	r3, #0
 80006ac:	d006      	beq.n	80006bc <ADC_ITConfig+0x38>
  {
    /* Enable the selected ADC interrupts */
    ADCx->CR1 |= itmask;
 80006ae:	687b      	ldr	r3, [r7, #4]
 80006b0:	685a      	ldr	r2, [r3, #4]
 80006b2:	68fb      	ldr	r3, [r7, #12]
 80006b4:	431a      	orrs	r2, r3
 80006b6:	687b      	ldr	r3, [r7, #4]
 80006b8:	605a      	str	r2, [r3, #4]
  else
  {
    /* Disable the selected ADC interrupts */
    ADCx->CR1 &= (~(uint32_t)itmask);
  }
}
 80006ba:	e006      	b.n	80006ca <ADC_ITConfig+0x46>
    ADCx->CR1 |= itmask;
  }
  else
  {
    /* Disable the selected ADC interrupts */
    ADCx->CR1 &= (~(uint32_t)itmask);
 80006bc:	687b      	ldr	r3, [r7, #4]
 80006be:	685a      	ldr	r2, [r3, #4]
 80006c0:	68fb      	ldr	r3, [r7, #12]
 80006c2:	43db      	mvns	r3, r3
 80006c4:	401a      	ands	r2, r3
 80006c6:	687b      	ldr	r3, [r7, #4]
 80006c8:	605a      	str	r2, [r3, #4]
  }
}
 80006ca:	bf00      	nop
 80006cc:	3714      	adds	r7, #20
 80006ce:	46bd      	mov	sp, r7
 80006d0:	bc80      	pop	{r7}
 80006d2:	4770      	bx	lr

080006d4 <ADC_GetFlagStatus>:
  *     @arg ADC_FLAG_RCNR: Regular channel not ready
  *     @arg ADC_FLAG_JCNR: Injected channel not ready
  * @retval The new state of ADC_FLAG (SET or RESET).
  */
FlagStatus ADC_GetFlagStatus(ADC_TypeDef* ADCx, uint16_t ADC_FLAG)
{
 80006d4:	b480      	push	{r7}
 80006d6:	b085      	sub	sp, #20
 80006d8:	af00      	add	r7, sp, #0
 80006da:	6078      	str	r0, [r7, #4]
 80006dc:	460b      	mov	r3, r1
 80006de:	807b      	strh	r3, [r7, #2]
  FlagStatus bitstatus = RESET;
 80006e0:	2300      	movs	r3, #0
 80006e2:	73fb      	strb	r3, [r7, #15]
  /* Check the parameters */
  assert_param(IS_ADC_ALL_PERIPH(ADCx));
  assert_param(IS_ADC_GET_FLAG(ADC_FLAG));

  /* Check the status of the specified ADC flag */
  if ((ADCx->SR & ADC_FLAG) != (uint8_t)RESET)
 80006e4:	687b      	ldr	r3, [r7, #4]
 80006e6:	681a      	ldr	r2, [r3, #0]
 80006e8:	887b      	ldrh	r3, [r7, #2]
 80006ea:	4013      	ands	r3, r2
 80006ec:	2b00      	cmp	r3, #0
 80006ee:	d002      	beq.n	80006f6 <ADC_GetFlagStatus+0x22>
  {
    /* ADC_FLAG is set */
    bitstatus = SET;
 80006f0:	2301      	movs	r3, #1
 80006f2:	73fb      	strb	r3, [r7, #15]
 80006f4:	e001      	b.n	80006fa <ADC_GetFlagStatus+0x26>
  }
  else
  {
    /* ADC_FLAG is reset */
    bitstatus = RESET;
 80006f6:	2300      	movs	r3, #0
 80006f8:	73fb      	strb	r3, [r7, #15]
  }
  /* Return the ADC_FLAG status */
  return  bitstatus;
 80006fa:	7bfb      	ldrb	r3, [r7, #15]
}
 80006fc:	4618      	mov	r0, r3
 80006fe:	3714      	adds	r7, #20
 8000700:	46bd      	mov	sp, r7
 8000702:	bc80      	pop	{r7}
 8000704:	4770      	bx	lr
 8000706:	bf00      	nop

08000708 <GPIO_Init>:
  *         peripheral.

  * @retval None
  */
void GPIO_Init(GPIO_TypeDef* GPIOx, GPIO_InitTypeDef* GPIO_InitStruct)
{
 8000708:	b480      	push	{r7}
 800070a:	b087      	sub	sp, #28
 800070c:	af00      	add	r7, sp, #0
 800070e:	6078      	str	r0, [r7, #4]
 8000710:	6039      	str	r1, [r7, #0]
  uint32_t pinpos = 0x00, pos = 0x00 , currentpin = 0x00;
 8000712:	2300      	movs	r3, #0
 8000714:	617b      	str	r3, [r7, #20]
 8000716:	2300      	movs	r3, #0
 8000718:	613b      	str	r3, [r7, #16]
 800071a:	2300      	movs	r3, #0
 800071c:	60fb      	str	r3, [r7, #12]
  assert_param(IS_GPIO_MODE(GPIO_InitStruct->GPIO_Mode));
  assert_param(IS_GPIO_PUPD(GPIO_InitStruct->GPIO_PuPd));

  /* -------------------------Configure the port pins---------------- */
  /*-- GPIO Mode Configuration --*/
  for (pinpos = 0x00; pinpos < 0x10; pinpos++)
 800071e:	2300      	movs	r3, #0
 8000720:	617b      	str	r3, [r7, #20]
 8000722:	e07e      	b.n	8000822 <GPIO_Init+0x11a>
  {
    pos = ((uint32_t)0x01) << pinpos;
 8000724:	2201      	movs	r2, #1
 8000726:	697b      	ldr	r3, [r7, #20]
 8000728:	fa02 f303 	lsl.w	r3, r2, r3
 800072c:	613b      	str	r3, [r7, #16]

    /* Get the port pins position */
    currentpin = (GPIO_InitStruct->GPIO_Pin) & pos;
 800072e:	683b      	ldr	r3, [r7, #0]
 8000730:	681a      	ldr	r2, [r3, #0]
 8000732:	693b      	ldr	r3, [r7, #16]
 8000734:	4013      	ands	r3, r2
 8000736:	60fb      	str	r3, [r7, #12]

    if (currentpin == pos)
 8000738:	68fa      	ldr	r2, [r7, #12]
 800073a:	693b      	ldr	r3, [r7, #16]
 800073c:	429a      	cmp	r2, r3
 800073e:	d16d      	bne.n	800081c <GPIO_Init+0x114>
    {
      GPIOx->MODER  &= ~(GPIO_MODER_MODER0 << (pinpos * 2));
 8000740:	687b      	ldr	r3, [r7, #4]
 8000742:	681a      	ldr	r2, [r3, #0]
 8000744:	697b      	ldr	r3, [r7, #20]
 8000746:	005b      	lsls	r3, r3, #1
 8000748:	2103      	movs	r1, #3
 800074a:	fa01 f303 	lsl.w	r3, r1, r3
 800074e:	43db      	mvns	r3, r3
 8000750:	401a      	ands	r2, r3
 8000752:	687b      	ldr	r3, [r7, #4]
 8000754:	601a      	str	r2, [r3, #0]

      GPIOx->MODER |= (((uint32_t)GPIO_InitStruct->GPIO_Mode) << (pinpos * 2));
 8000756:	687b      	ldr	r3, [r7, #4]
 8000758:	681a      	ldr	r2, [r3, #0]
 800075a:	683b      	ldr	r3, [r7, #0]
 800075c:	791b      	ldrb	r3, [r3, #4]
 800075e:	4619      	mov	r1, r3
 8000760:	697b      	ldr	r3, [r7, #20]
 8000762:	005b      	lsls	r3, r3, #1
 8000764:	fa01 f303 	lsl.w	r3, r1, r3
 8000768:	431a      	orrs	r2, r3
 800076a:	687b      	ldr	r3, [r7, #4]
 800076c:	601a      	str	r2, [r3, #0]

      if ((GPIO_InitStruct->GPIO_Mode == GPIO_Mode_OUT) || (GPIO_InitStruct->GPIO_Mode == GPIO_Mode_AF))
 800076e:	683b      	ldr	r3, [r7, #0]
 8000770:	791b      	ldrb	r3, [r3, #4]
 8000772:	2b01      	cmp	r3, #1
 8000774:	d003      	beq.n	800077e <GPIO_Init+0x76>
 8000776:	683b      	ldr	r3, [r7, #0]
 8000778:	791b      	ldrb	r3, [r3, #4]
 800077a:	2b02      	cmp	r3, #2
 800077c:	d136      	bne.n	80007ec <GPIO_Init+0xe4>
      {
        /* Check Speed mode parameters */
        assert_param(IS_GPIO_SPEED(GPIO_InitStruct->GPIO_Speed));

        /* Speed mode configuration */
        GPIOx->OSPEEDR &= ~(GPIO_OSPEEDER_OSPEEDR0 << (pinpos * 2));
 800077e:	687b      	ldr	r3, [r7, #4]
 8000780:	689a      	ldr	r2, [r3, #8]
 8000782:	697b      	ldr	r3, [r7, #20]
 8000784:	005b      	lsls	r3, r3, #1
 8000786:	2103      	movs	r1, #3
 8000788:	fa01 f303 	lsl.w	r3, r1, r3
 800078c:	43db      	mvns	r3, r3
 800078e:	401a      	ands	r2, r3
 8000790:	687b      	ldr	r3, [r7, #4]
 8000792:	609a      	str	r2, [r3, #8]
        GPIOx->OSPEEDR |= ((uint32_t)(GPIO_InitStruct->GPIO_Speed) << (pinpos * 2));
 8000794:	687b      	ldr	r3, [r7, #4]
 8000796:	689a      	ldr	r2, [r3, #8]
 8000798:	683b      	ldr	r3, [r7, #0]
 800079a:	795b      	ldrb	r3, [r3, #5]
 800079c:	4619      	mov	r1, r3
 800079e:	697b      	ldr	r3, [r7, #20]
 80007a0:	005b      	lsls	r3, r3, #1
 80007a2:	fa01 f303 	lsl.w	r3, r1, r3
 80007a6:	431a      	orrs	r2, r3
 80007a8:	687b      	ldr	r3, [r7, #4]
 80007aa:	609a      	str	r2, [r3, #8]

        /*Check Output mode parameters */
        assert_param(IS_GPIO_OTYPE(GPIO_InitStruct->GPIO_OType));

        /* Output mode configuration */
        GPIOx->OTYPER  &= ~((GPIO_OTYPER_OT_0) << ((uint16_t)pinpos)) ;
 80007ac:	687b      	ldr	r3, [r7, #4]
 80007ae:	889b      	ldrh	r3, [r3, #4]
 80007b0:	b29a      	uxth	r2, r3
 80007b2:	697b      	ldr	r3, [r7, #20]
 80007b4:	b29b      	uxth	r3, r3
 80007b6:	2101      	movs	r1, #1
 80007b8:	fa01 f303 	lsl.w	r3, r1, r3
 80007bc:	b29b      	uxth	r3, r3
 80007be:	43db      	mvns	r3, r3
 80007c0:	b29b      	uxth	r3, r3
 80007c2:	4013      	ands	r3, r2
 80007c4:	b29a      	uxth	r2, r3
 80007c6:	687b      	ldr	r3, [r7, #4]
 80007c8:	809a      	strh	r2, [r3, #4]
        GPIOx->OTYPER |= (uint16_t)(((uint16_t)GPIO_InitStruct->GPIO_OType) << ((uint16_t)pinpos));
 80007ca:	687b      	ldr	r3, [r7, #4]
 80007cc:	889b      	ldrh	r3, [r3, #4]
 80007ce:	b29b      	uxth	r3, r3
 80007d0:	b21a      	sxth	r2, r3
 80007d2:	683b      	ldr	r3, [r7, #0]
 80007d4:	799b      	ldrb	r3, [r3, #6]
 80007d6:	4619      	mov	r1, r3
 80007d8:	697b      	ldr	r3, [r7, #20]
 80007da:	b29b      	uxth	r3, r3
 80007dc:	fa01 f303 	lsl.w	r3, r1, r3
 80007e0:	b21b      	sxth	r3, r3
 80007e2:	4313      	orrs	r3, r2
 80007e4:	b21b      	sxth	r3, r3
 80007e6:	b29a      	uxth	r2, r3
 80007e8:	687b      	ldr	r3, [r7, #4]
 80007ea:	809a      	strh	r2, [r3, #4]
      }

      /* Pull-up Pull down resistor configuration */
      GPIOx->PUPDR &= ~(GPIO_PUPDR_PUPDR0 << ((uint16_t)pinpos * 2));
 80007ec:	687b      	ldr	r3, [r7, #4]
 80007ee:	68da      	ldr	r2, [r3, #12]
 80007f0:	697b      	ldr	r3, [r7, #20]
 80007f2:	b29b      	uxth	r3, r3
 80007f4:	005b      	lsls	r3, r3, #1
 80007f6:	2103      	movs	r1, #3
 80007f8:	fa01 f303 	lsl.w	r3, r1, r3
 80007fc:	43db      	mvns	r3, r3
 80007fe:	401a      	ands	r2, r3
 8000800:	687b      	ldr	r3, [r7, #4]
 8000802:	60da      	str	r2, [r3, #12]
      GPIOx->PUPDR |= (((uint32_t)GPIO_InitStruct->GPIO_PuPd) << (pinpos * 2));
 8000804:	687b      	ldr	r3, [r7, #4]
 8000806:	68da      	ldr	r2, [r3, #12]
 8000808:	683b      	ldr	r3, [r7, #0]
 800080a:	79db      	ldrb	r3, [r3, #7]
 800080c:	4619      	mov	r1, r3
 800080e:	697b      	ldr	r3, [r7, #20]
 8000810:	005b      	lsls	r3, r3, #1
 8000812:	fa01 f303 	lsl.w	r3, r1, r3
 8000816:	431a      	orrs	r2, r3
 8000818:	687b      	ldr	r3, [r7, #4]
 800081a:	60da      	str	r2, [r3, #12]
  assert_param(IS_GPIO_MODE(GPIO_InitStruct->GPIO_Mode));
  assert_param(IS_GPIO_PUPD(GPIO_InitStruct->GPIO_PuPd));

  /* -------------------------Configure the port pins---------------- */
  /*-- GPIO Mode Configuration --*/
  for (pinpos = 0x00; pinpos < 0x10; pinpos++)
 800081c:	697b      	ldr	r3, [r7, #20]
 800081e:	3301      	adds	r3, #1
 8000820:	617b      	str	r3, [r7, #20]
 8000822:	697b      	ldr	r3, [r7, #20]
 8000824:	2b0f      	cmp	r3, #15
 8000826:	f67f af7d 	bls.w	8000724 <GPIO_Init+0x1c>
      /* Pull-up Pull down resistor configuration */
      GPIOx->PUPDR &= ~(GPIO_PUPDR_PUPDR0 << ((uint16_t)pinpos * 2));
      GPIOx->PUPDR |= (((uint32_t)GPIO_InitStruct->GPIO_PuPd) << (pinpos * 2));
    }
  }
}
 800082a:	bf00      	nop
 800082c:	371c      	adds	r7, #28
 800082e:	46bd      	mov	sp, r7
 8000830:	bc80      	pop	{r7}
 8000832:	4770      	bx	lr

08000834 <GPIO_PinAFConfig>:
  *        alternate function I/O pins.  
  * @note EVENTOUT is not mapped on PH0, PH1 and PH2.  
  * @retval None
  */
void GPIO_PinAFConfig(GPIO_TypeDef* GPIOx, uint16_t GPIO_PinSource, uint8_t GPIO_AF)
{
 8000834:	b480      	push	{r7}
 8000836:	b085      	sub	sp, #20
 8000838:	af00      	add	r7, sp, #0
 800083a:	6078      	str	r0, [r7, #4]
 800083c:	460b      	mov	r3, r1
 800083e:	807b      	strh	r3, [r7, #2]
 8000840:	4613      	mov	r3, r2
 8000842:	707b      	strb	r3, [r7, #1]
  uint32_t temp = 0x00;
 8000844:	2300      	movs	r3, #0
 8000846:	60fb      	str	r3, [r7, #12]
  uint32_t temp_2 = 0x00;
 8000848:	2300      	movs	r3, #0
 800084a:	60bb      	str	r3, [r7, #8]
  /* Check the parameters */
  assert_param(IS_GPIO_ALL_PERIPH(GPIOx));
  assert_param(IS_GPIO_PIN_SOURCE(GPIO_PinSource));
  assert_param(IS_GPIO_AF(GPIO_AF));
  
  temp = ((uint32_t)(GPIO_AF) << ((uint32_t)((uint32_t)GPIO_PinSource & (uint32_t)0x07) * 4)) ;
 800084c:	787a      	ldrb	r2, [r7, #1]
 800084e:	887b      	ldrh	r3, [r7, #2]
 8000850:	f003 0307 	and.w	r3, r3, #7
 8000854:	009b      	lsls	r3, r3, #2
 8000856:	fa02 f303 	lsl.w	r3, r2, r3
 800085a:	60fb      	str	r3, [r7, #12]
  GPIOx->AFR[GPIO_PinSource >> 0x03] &= ~((uint32_t)0xF << ((uint32_t)((uint32_t)GPIO_PinSource & (uint32_t)0x07) * 4)) ;
 800085c:	887b      	ldrh	r3, [r7, #2]
 800085e:	08db      	lsrs	r3, r3, #3
 8000860:	b29b      	uxth	r3, r3
 8000862:	4618      	mov	r0, r3
 8000864:	887b      	ldrh	r3, [r7, #2]
 8000866:	08db      	lsrs	r3, r3, #3
 8000868:	b29b      	uxth	r3, r3
 800086a:	461a      	mov	r2, r3
 800086c:	687b      	ldr	r3, [r7, #4]
 800086e:	3208      	adds	r2, #8
 8000870:	f853 2022 	ldr.w	r2, [r3, r2, lsl #2]
 8000874:	887b      	ldrh	r3, [r7, #2]
 8000876:	f003 0307 	and.w	r3, r3, #7
 800087a:	009b      	lsls	r3, r3, #2
 800087c:	210f      	movs	r1, #15
 800087e:	fa01 f303 	lsl.w	r3, r1, r3
 8000882:	43db      	mvns	r3, r3
 8000884:	ea02 0103 	and.w	r1, r2, r3
 8000888:	687b      	ldr	r3, [r7, #4]
 800088a:	f100 0208 	add.w	r2, r0, #8
 800088e:	f843 1022 	str.w	r1, [r3, r2, lsl #2]
  temp_2 = GPIOx->AFR[GPIO_PinSource >> 0x03] | temp;
 8000892:	887b      	ldrh	r3, [r7, #2]
 8000894:	08db      	lsrs	r3, r3, #3
 8000896:	b29b      	uxth	r3, r3
 8000898:	461a      	mov	r2, r3
 800089a:	687b      	ldr	r3, [r7, #4]
 800089c:	3208      	adds	r2, #8
 800089e:	f853 2022 	ldr.w	r2, [r3, r2, lsl #2]
 80008a2:	68fb      	ldr	r3, [r7, #12]
 80008a4:	4313      	orrs	r3, r2
 80008a6:	60bb      	str	r3, [r7, #8]
  GPIOx->AFR[GPIO_PinSource >> 0x03] = temp_2;
 80008a8:	887b      	ldrh	r3, [r7, #2]
 80008aa:	08db      	lsrs	r3, r3, #3
 80008ac:	b29b      	uxth	r3, r3
 80008ae:	461a      	mov	r2, r3
 80008b0:	687b      	ldr	r3, [r7, #4]
 80008b2:	3208      	adds	r2, #8
 80008b4:	68b9      	ldr	r1, [r7, #8]
 80008b6:	f843 1022 	str.w	r1, [r3, r2, lsl #2]
}
 80008ba:	bf00      	nop
 80008bc:	3714      	adds	r7, #20
 80008be:	46bd      	mov	sp, r7
 80008c0:	bc80      	pop	{r7}
 80008c2:	4770      	bx	lr

080008c4 <RCC_HSICmd>:
  * @note   When the HSI is stopped, HSIRDY flag goes low after 6 HSI oscillator
  *         clock cycles.  
  * @retval None
  */
void RCC_HSICmd(FunctionalState NewState)
{
 80008c4:	b480      	push	{r7}
 80008c6:	b083      	sub	sp, #12
 80008c8:	af00      	add	r7, sp, #0
 80008ca:	4603      	mov	r3, r0
 80008cc:	71fb      	strb	r3, [r7, #7]
  /* Check the parameters */
  assert_param(IS_FUNCTIONAL_STATE(NewState));
  
  *(__IO uint32_t *) CR_HSION_BB = (uint32_t)NewState;
 80008ce:	4a04      	ldr	r2, [pc, #16]	; (80008e0 <RCC_HSICmd+0x1c>)
 80008d0:	79fb      	ldrb	r3, [r7, #7]
 80008d2:	6013      	str	r3, [r2, #0]
}
 80008d4:	bf00      	nop
 80008d6:	370c      	adds	r7, #12
 80008d8:	46bd      	mov	sp, r7
 80008da:	bc80      	pop	{r7}
 80008dc:	4770      	bx	lr
 80008de:	bf00      	nop
 80008e0:	42470000 	.word	0x42470000

080008e4 <RCC_GetClocksFreq>:
  *           configuration based on this function will be incorrect.
  *    
  * @retval None
  */
void RCC_GetClocksFreq(RCC_ClocksTypeDef* RCC_Clocks)
{
 80008e4:	b480      	push	{r7}
 80008e6:	b089      	sub	sp, #36	; 0x24
 80008e8:	af00      	add	r7, sp, #0
 80008ea:	6078      	str	r0, [r7, #4]
  uint32_t tmp = 0, pllmul = 0, plldiv = 0, pllsource = 0, presc = 0, msirange = 0;
 80008ec:	2300      	movs	r3, #0
 80008ee:	61fb      	str	r3, [r7, #28]
 80008f0:	2300      	movs	r3, #0
 80008f2:	61bb      	str	r3, [r7, #24]
 80008f4:	2300      	movs	r3, #0
 80008f6:	617b      	str	r3, [r7, #20]
 80008f8:	2300      	movs	r3, #0
 80008fa:	613b      	str	r3, [r7, #16]
 80008fc:	2300      	movs	r3, #0
 80008fe:	60fb      	str	r3, [r7, #12]
 8000900:	2300      	movs	r3, #0
 8000902:	60bb      	str	r3, [r7, #8]

  /* Get SYSCLK source -------------------------------------------------------*/
  tmp = RCC->CFGR & RCC_CFGR_SWS;
 8000904:	4b5f      	ldr	r3, [pc, #380]	; (8000a84 <RCC_GetClocksFreq+0x1a0>)
 8000906:	689b      	ldr	r3, [r3, #8]
 8000908:	f003 030c 	and.w	r3, r3, #12
 800090c:	61fb      	str	r3, [r7, #28]
  
  switch (tmp)
 800090e:	69fb      	ldr	r3, [r7, #28]
 8000910:	2b0c      	cmp	r3, #12
 8000912:	d865      	bhi.n	80009e0 <RCC_GetClocksFreq+0xfc>
 8000914:	a201      	add	r2, pc, #4	; (adr r2, 800091c <RCC_GetClocksFreq+0x38>)
 8000916:	f852 f023 	ldr.w	pc, [r2, r3, lsl #2]
 800091a:	bf00      	nop
 800091c:	08000951 	.word	0x08000951
 8000920:	080009e1 	.word	0x080009e1
 8000924:	080009e1 	.word	0x080009e1
 8000928:	080009e1 	.word	0x080009e1
 800092c:	08000971 	.word	0x08000971
 8000930:	080009e1 	.word	0x080009e1
 8000934:	080009e1 	.word	0x080009e1
 8000938:	080009e1 	.word	0x080009e1
 800093c:	08000979 	.word	0x08000979
 8000940:	080009e1 	.word	0x080009e1
 8000944:	080009e1 	.word	0x080009e1
 8000948:	080009e1 	.word	0x080009e1
 800094c:	08000981 	.word	0x08000981
  {
    case 0x00:  /* MSI used as system clock */
      msirange = (RCC->ICSCR & RCC_ICSCR_MSIRANGE ) >> 13;
 8000950:	4b4c      	ldr	r3, [pc, #304]	; (8000a84 <RCC_GetClocksFreq+0x1a0>)
 8000952:	685b      	ldr	r3, [r3, #4]
 8000954:	f403 4360 	and.w	r3, r3, #57344	; 0xe000
 8000958:	0b5b      	lsrs	r3, r3, #13
 800095a:	60bb      	str	r3, [r7, #8]
      RCC_Clocks->SYSCLK_Frequency = (32768 * (1 << (msirange + 1)));
 800095c:	68bb      	ldr	r3, [r7, #8]
 800095e:	3301      	adds	r3, #1
 8000960:	f44f 4200 	mov.w	r2, #32768	; 0x8000
 8000964:	fa02 f303 	lsl.w	r3, r2, r3
 8000968:	461a      	mov	r2, r3
 800096a:	687b      	ldr	r3, [r7, #4]
 800096c:	601a      	str	r2, [r3, #0]
      break;
 800096e:	e047      	b.n	8000a00 <RCC_GetClocksFreq+0x11c>
    case 0x04:  /* HSI used as system clock */
      RCC_Clocks->SYSCLK_Frequency = HSI_VALUE;
 8000970:	687b      	ldr	r3, [r7, #4]
 8000972:	4a45      	ldr	r2, [pc, #276]	; (8000a88 <RCC_GetClocksFreq+0x1a4>)
 8000974:	601a      	str	r2, [r3, #0]
      break;
 8000976:	e043      	b.n	8000a00 <RCC_GetClocksFreq+0x11c>
    case 0x08:  /* HSE used as system clock */
      RCC_Clocks->SYSCLK_Frequency = HSE_VALUE;
 8000978:	687b      	ldr	r3, [r7, #4]
 800097a:	4a44      	ldr	r2, [pc, #272]	; (8000a8c <RCC_GetClocksFreq+0x1a8>)
 800097c:	601a      	str	r2, [r3, #0]
      break;
 800097e:	e03f      	b.n	8000a00 <RCC_GetClocksFreq+0x11c>
    case 0x0C:  /* PLL used as system clock */
      /* Get PLL clock source and multiplication factor ----------------------*/
      pllmul = RCC->CFGR & RCC_CFGR_PLLMUL;
 8000980:	4b40      	ldr	r3, [pc, #256]	; (8000a84 <RCC_GetClocksFreq+0x1a0>)
 8000982:	689b      	ldr	r3, [r3, #8]
 8000984:	f403 1370 	and.w	r3, r3, #3932160	; 0x3c0000
 8000988:	61bb      	str	r3, [r7, #24]
      plldiv = RCC->CFGR & RCC_CFGR_PLLDIV;
 800098a:	4b3e      	ldr	r3, [pc, #248]	; (8000a84 <RCC_GetClocksFreq+0x1a0>)
 800098c:	689b      	ldr	r3, [r3, #8]
 800098e:	f403 0340 	and.w	r3, r3, #12582912	; 0xc00000
 8000992:	617b      	str	r3, [r7, #20]
      pllmul = PLLMulTable[(pllmul >> 18)];
 8000994:	69bb      	ldr	r3, [r7, #24]
 8000996:	0c9b      	lsrs	r3, r3, #18
 8000998:	4a3d      	ldr	r2, [pc, #244]	; (8000a90 <RCC_GetClocksFreq+0x1ac>)
 800099a:	5cd3      	ldrb	r3, [r2, r3]
 800099c:	b2db      	uxtb	r3, r3
 800099e:	61bb      	str	r3, [r7, #24]
      plldiv = (plldiv >> 22) + 1;
 80009a0:	697b      	ldr	r3, [r7, #20]
 80009a2:	0d9b      	lsrs	r3, r3, #22
 80009a4:	3301      	adds	r3, #1
 80009a6:	617b      	str	r3, [r7, #20]
      
      pllsource = RCC->CFGR & RCC_CFGR_PLLSRC;
 80009a8:	4b36      	ldr	r3, [pc, #216]	; (8000a84 <RCC_GetClocksFreq+0x1a0>)
 80009aa:	689b      	ldr	r3, [r3, #8]
 80009ac:	f403 3380 	and.w	r3, r3, #65536	; 0x10000
 80009b0:	613b      	str	r3, [r7, #16]

      if (pllsource == 0x00)
 80009b2:	693b      	ldr	r3, [r7, #16]
 80009b4:	2b00      	cmp	r3, #0
 80009b6:	d109      	bne.n	80009cc <RCC_GetClocksFreq+0xe8>
      {
        /* HSI oscillator clock selected as PLL clock source */
        RCC_Clocks->SYSCLK_Frequency = (((HSI_VALUE) * pllmul) / plldiv);
 80009b8:	69bb      	ldr	r3, [r7, #24]
 80009ba:	4a33      	ldr	r2, [pc, #204]	; (8000a88 <RCC_GetClocksFreq+0x1a4>)
 80009bc:	fb02 f203 	mul.w	r2, r2, r3
 80009c0:	697b      	ldr	r3, [r7, #20]
 80009c2:	fbb2 f2f3 	udiv	r2, r2, r3
 80009c6:	687b      	ldr	r3, [r7, #4]
 80009c8:	601a      	str	r2, [r3, #0]
      else
      {
        /* HSE selected as PLL clock source */
        RCC_Clocks->SYSCLK_Frequency = (((HSE_VALUE) * pllmul) / plldiv);
      }
      break;
 80009ca:	e019      	b.n	8000a00 <RCC_GetClocksFreq+0x11c>
        RCC_Clocks->SYSCLK_Frequency = (((HSI_VALUE) * pllmul) / plldiv);
      }
      else
      {
        /* HSE selected as PLL clock source */
        RCC_Clocks->SYSCLK_Frequency = (((HSE_VALUE) * pllmul) / plldiv);
 80009cc:	69bb      	ldr	r3, [r7, #24]
 80009ce:	4a2f      	ldr	r2, [pc, #188]	; (8000a8c <RCC_GetClocksFreq+0x1a8>)
 80009d0:	fb02 f203 	mul.w	r2, r2, r3
 80009d4:	697b      	ldr	r3, [r7, #20]
 80009d6:	fbb2 f2f3 	udiv	r2, r2, r3
 80009da:	687b      	ldr	r3, [r7, #4]
 80009dc:	601a      	str	r2, [r3, #0]
      }
      break;
 80009de:	e00f      	b.n	8000a00 <RCC_GetClocksFreq+0x11c>
    default: /* MSI used as system clock */
      msirange = (RCC->ICSCR & RCC_ICSCR_MSIRANGE ) >> 13;
 80009e0:	4b28      	ldr	r3, [pc, #160]	; (8000a84 <RCC_GetClocksFreq+0x1a0>)
 80009e2:	685b      	ldr	r3, [r3, #4]
 80009e4:	f403 4360 	and.w	r3, r3, #57344	; 0xe000
 80009e8:	0b5b      	lsrs	r3, r3, #13
 80009ea:	60bb      	str	r3, [r7, #8]
      RCC_Clocks->SYSCLK_Frequency = (32768 * (1 << (msirange + 1)));
 80009ec:	68bb      	ldr	r3, [r7, #8]
 80009ee:	3301      	adds	r3, #1
 80009f0:	f44f 4200 	mov.w	r2, #32768	; 0x8000
 80009f4:	fa02 f303 	lsl.w	r3, r2, r3
 80009f8:	461a      	mov	r2, r3
 80009fa:	687b      	ldr	r3, [r7, #4]
 80009fc:	601a      	str	r2, [r3, #0]
      break;
 80009fe:	bf00      	nop
  }
  /* Compute HCLK, PCLK1, PCLK2 and ADCCLK clocks frequencies ----------------*/
  /* Get HCLK prescaler */
  tmp = RCC->CFGR & RCC_CFGR_HPRE;
 8000a00:	4b20      	ldr	r3, [pc, #128]	; (8000a84 <RCC_GetClocksFreq+0x1a0>)
 8000a02:	689b      	ldr	r3, [r3, #8]
 8000a04:	f003 03f0 	and.w	r3, r3, #240	; 0xf0
 8000a08:	61fb      	str	r3, [r7, #28]
  tmp = tmp >> 4;
 8000a0a:	69fb      	ldr	r3, [r7, #28]
 8000a0c:	091b      	lsrs	r3, r3, #4
 8000a0e:	61fb      	str	r3, [r7, #28]
  presc = APBAHBPrescTable[tmp]; 
 8000a10:	4a20      	ldr	r2, [pc, #128]	; (8000a94 <RCC_GetClocksFreq+0x1b0>)
 8000a12:	69fb      	ldr	r3, [r7, #28]
 8000a14:	4413      	add	r3, r2
 8000a16:	781b      	ldrb	r3, [r3, #0]
 8000a18:	b2db      	uxtb	r3, r3
 8000a1a:	60fb      	str	r3, [r7, #12]
  /* HCLK clock frequency */
  RCC_Clocks->HCLK_Frequency = RCC_Clocks->SYSCLK_Frequency >> presc;
 8000a1c:	687b      	ldr	r3, [r7, #4]
 8000a1e:	681a      	ldr	r2, [r3, #0]
 8000a20:	68fb      	ldr	r3, [r7, #12]
 8000a22:	40da      	lsrs	r2, r3
 8000a24:	687b      	ldr	r3, [r7, #4]
 8000a26:	605a      	str	r2, [r3, #4]

  /* Get PCLK1 prescaler */
  tmp = RCC->CFGR & RCC_CFGR_PPRE1;
 8000a28:	4b16      	ldr	r3, [pc, #88]	; (8000a84 <RCC_GetClocksFreq+0x1a0>)
 8000a2a:	689b      	ldr	r3, [r3, #8]
 8000a2c:	f403 63e0 	and.w	r3, r3, #1792	; 0x700
 8000a30:	61fb      	str	r3, [r7, #28]
  tmp = tmp >> 8;
 8000a32:	69fb      	ldr	r3, [r7, #28]
 8000a34:	0a1b      	lsrs	r3, r3, #8
 8000a36:	61fb      	str	r3, [r7, #28]
  presc = APBAHBPrescTable[tmp];
 8000a38:	4a16      	ldr	r2, [pc, #88]	; (8000a94 <RCC_GetClocksFreq+0x1b0>)
 8000a3a:	69fb      	ldr	r3, [r7, #28]
 8000a3c:	4413      	add	r3, r2
 8000a3e:	781b      	ldrb	r3, [r3, #0]
 8000a40:	b2db      	uxtb	r3, r3
 8000a42:	60fb      	str	r3, [r7, #12]
  /* PCLK1 clock frequency */
  RCC_Clocks->PCLK1_Frequency = RCC_Clocks->HCLK_Frequency >> presc;
 8000a44:	687b      	ldr	r3, [r7, #4]
 8000a46:	685a      	ldr	r2, [r3, #4]
 8000a48:	68fb      	ldr	r3, [r7, #12]
 8000a4a:	40da      	lsrs	r2, r3
 8000a4c:	687b      	ldr	r3, [r7, #4]
 8000a4e:	609a      	str	r2, [r3, #8]

  /* Get PCLK2 prescaler */
  tmp = RCC->CFGR & RCC_CFGR_PPRE2;
 8000a50:	4b0c      	ldr	r3, [pc, #48]	; (8000a84 <RCC_GetClocksFreq+0x1a0>)
 8000a52:	689b      	ldr	r3, [r3, #8]
 8000a54:	f403 5360 	and.w	r3, r3, #14336	; 0x3800
 8000a58:	61fb      	str	r3, [r7, #28]
  tmp = tmp >> 11;
 8000a5a:	69fb      	ldr	r3, [r7, #28]
 8000a5c:	0adb      	lsrs	r3, r3, #11
 8000a5e:	61fb      	str	r3, [r7, #28]
  presc = APBAHBPrescTable[tmp];
 8000a60:	4a0c      	ldr	r2, [pc, #48]	; (8000a94 <RCC_GetClocksFreq+0x1b0>)
 8000a62:	69fb      	ldr	r3, [r7, #28]
 8000a64:	4413      	add	r3, r2
 8000a66:	781b      	ldrb	r3, [r3, #0]
 8000a68:	b2db      	uxtb	r3, r3
 8000a6a:	60fb      	str	r3, [r7, #12]
  /* PCLK2 clock frequency */
  RCC_Clocks->PCLK2_Frequency = RCC_Clocks->HCLK_Frequency >> presc;
 8000a6c:	687b      	ldr	r3, [r7, #4]
 8000a6e:	685a      	ldr	r2, [r3, #4]
 8000a70:	68fb      	ldr	r3, [r7, #12]
 8000a72:	40da      	lsrs	r2, r3
 8000a74:	687b      	ldr	r3, [r7, #4]
 8000a76:	60da      	str	r2, [r3, #12]
}
 8000a78:	bf00      	nop
 8000a7a:	3724      	adds	r7, #36	; 0x24
 8000a7c:	46bd      	mov	sp, r7
 8000a7e:	bc80      	pop	{r7}
 8000a80:	4770      	bx	lr
 8000a82:	bf00      	nop
 8000a84:	40023800 	.word	0x40023800
 8000a88:	00f42400 	.word	0x00f42400
 8000a8c:	007a1200 	.word	0x007a1200
 8000a90:	20000000 	.word	0x20000000
 8000a94:	2000000c 	.word	0x2000000c

08000a98 <RCC_AHBPeriphClockCmd>:
  * @param  NewState: new state of the specified peripheral clock.
  *         This parameter can be: ENABLE or DISABLE.
  * @retval None
  */
void RCC_AHBPeriphClockCmd(uint32_t RCC_AHBPeriph, FunctionalState NewState)
{
 8000a98:	b480      	push	{r7}
 8000a9a:	b083      	sub	sp, #12
 8000a9c:	af00      	add	r7, sp, #0
 8000a9e:	6078      	str	r0, [r7, #4]
 8000aa0:	460b      	mov	r3, r1
 8000aa2:	70fb      	strb	r3, [r7, #3]
  /* Check the parameters */
  assert_param(IS_RCC_AHB_PERIPH(RCC_AHBPeriph));
  assert_param(IS_FUNCTIONAL_STATE(NewState));
  
  if (NewState != DISABLE)
 8000aa4:	78fb      	ldrb	r3, [r7, #3]
 8000aa6:	2b00      	cmp	r3, #0
 8000aa8:	d006      	beq.n	8000ab8 <RCC_AHBPeriphClockCmd+0x20>
  {
    RCC->AHBENR |= RCC_AHBPeriph;
 8000aaa:	4909      	ldr	r1, [pc, #36]	; (8000ad0 <RCC_AHBPeriphClockCmd+0x38>)
 8000aac:	4b08      	ldr	r3, [pc, #32]	; (8000ad0 <RCC_AHBPeriphClockCmd+0x38>)
 8000aae:	69da      	ldr	r2, [r3, #28]
 8000ab0:	687b      	ldr	r3, [r7, #4]
 8000ab2:	4313      	orrs	r3, r2
 8000ab4:	61cb      	str	r3, [r1, #28]
  }
  else
  {
    RCC->AHBENR &= ~RCC_AHBPeriph;
  }
}
 8000ab6:	e006      	b.n	8000ac6 <RCC_AHBPeriphClockCmd+0x2e>
  {
    RCC->AHBENR |= RCC_AHBPeriph;
  }
  else
  {
    RCC->AHBENR &= ~RCC_AHBPeriph;
 8000ab8:	4905      	ldr	r1, [pc, #20]	; (8000ad0 <RCC_AHBPeriphClockCmd+0x38>)
 8000aba:	4b05      	ldr	r3, [pc, #20]	; (8000ad0 <RCC_AHBPeriphClockCmd+0x38>)
 8000abc:	69da      	ldr	r2, [r3, #28]
 8000abe:	687b      	ldr	r3, [r7, #4]
 8000ac0:	43db      	mvns	r3, r3
 8000ac2:	4013      	ands	r3, r2
 8000ac4:	61cb      	str	r3, [r1, #28]
  }
}
 8000ac6:	bf00      	nop
 8000ac8:	370c      	adds	r7, #12
 8000aca:	46bd      	mov	sp, r7
 8000acc:	bc80      	pop	{r7}
 8000ace:	4770      	bx	lr
 8000ad0:	40023800 	.word	0x40023800

08000ad4 <RCC_APB2PeriphClockCmd>:
  * @param  NewState: new state of the specified peripheral clock.
  *         This parameter can be: ENABLE or DISABLE.
  * @retval None
  */
void RCC_APB2PeriphClockCmd(uint32_t RCC_APB2Periph, FunctionalState NewState)
{
 8000ad4:	b480      	push	{r7}
 8000ad6:	b083      	sub	sp, #12
 8000ad8:	af00      	add	r7, sp, #0
 8000ada:	6078      	str	r0, [r7, #4]
 8000adc:	460b      	mov	r3, r1
 8000ade:	70fb      	strb	r3, [r7, #3]
  /* Check the parameters */
  assert_param(IS_RCC_APB2_PERIPH(RCC_APB2Periph));
  assert_param(IS_FUNCTIONAL_STATE(NewState));

  if (NewState != DISABLE)
 8000ae0:	78fb      	ldrb	r3, [r7, #3]
 8000ae2:	2b00      	cmp	r3, #0
 8000ae4:	d006      	beq.n	8000af4 <RCC_APB2PeriphClockCmd+0x20>
  {
    RCC->APB2ENR |= RCC_APB2Periph;
 8000ae6:	4909      	ldr	r1, [pc, #36]	; (8000b0c <RCC_APB2PeriphClockCmd+0x38>)
 8000ae8:	4b08      	ldr	r3, [pc, #32]	; (8000b0c <RCC_APB2PeriphClockCmd+0x38>)
 8000aea:	6a1a      	ldr	r2, [r3, #32]
 8000aec:	687b      	ldr	r3, [r7, #4]
 8000aee:	4313      	orrs	r3, r2
 8000af0:	620b      	str	r3, [r1, #32]
  }
  else
  {
    RCC->APB2ENR &= ~RCC_APB2Periph;
  }
}
 8000af2:	e006      	b.n	8000b02 <RCC_APB2PeriphClockCmd+0x2e>
  {
    RCC->APB2ENR |= RCC_APB2Periph;
  }
  else
  {
    RCC->APB2ENR &= ~RCC_APB2Periph;
 8000af4:	4905      	ldr	r1, [pc, #20]	; (8000b0c <RCC_APB2PeriphClockCmd+0x38>)
 8000af6:	4b05      	ldr	r3, [pc, #20]	; (8000b0c <RCC_APB2PeriphClockCmd+0x38>)
 8000af8:	6a1a      	ldr	r2, [r3, #32]
 8000afa:	687b      	ldr	r3, [r7, #4]
 8000afc:	43db      	mvns	r3, r3
 8000afe:	4013      	ands	r3, r2
 8000b00:	620b      	str	r3, [r1, #32]
  }
}
 8000b02:	bf00      	nop
 8000b04:	370c      	adds	r7, #12
 8000b06:	46bd      	mov	sp, r7
 8000b08:	bc80      	pop	{r7}
 8000b0a:	4770      	bx	lr
 8000b0c:	40023800 	.word	0x40023800

08000b10 <RCC_APB1PeriphClockCmd>:
  * @param  NewState: new state of the specified peripheral clock.
  *         This parameter can be: ENABLE or DISABLE.
  * @retval None
  */
void RCC_APB1PeriphClockCmd(uint32_t RCC_APB1Periph, FunctionalState NewState)
{
 8000b10:	b480      	push	{r7}
 8000b12:	b083      	sub	sp, #12
 8000b14:	af00      	add	r7, sp, #0
 8000b16:	6078      	str	r0, [r7, #4]
 8000b18:	460b      	mov	r3, r1
 8000b1a:	70fb      	strb	r3, [r7, #3]
  /* Check the parameters */
  assert_param(IS_RCC_APB1_PERIPH(RCC_APB1Periph));
  assert_param(IS_FUNCTIONAL_STATE(NewState));

  if (NewState != DISABLE)
 8000b1c:	78fb      	ldrb	r3, [r7, #3]
 8000b1e:	2b00      	cmp	r3, #0
 8000b20:	d006      	beq.n	8000b30 <RCC_APB1PeriphClockCmd+0x20>
  {
    RCC->APB1ENR |= RCC_APB1Periph;
 8000b22:	4909      	ldr	r1, [pc, #36]	; (8000b48 <RCC_APB1PeriphClockCmd+0x38>)
 8000b24:	4b08      	ldr	r3, [pc, #32]	; (8000b48 <RCC_APB1PeriphClockCmd+0x38>)
 8000b26:	6a5a      	ldr	r2, [r3, #36]	; 0x24
 8000b28:	687b      	ldr	r3, [r7, #4]
 8000b2a:	4313      	orrs	r3, r2
 8000b2c:	624b      	str	r3, [r1, #36]	; 0x24
  }
  else
  {
    RCC->APB1ENR &= ~RCC_APB1Periph;
  }
}
 8000b2e:	e006      	b.n	8000b3e <RCC_APB1PeriphClockCmd+0x2e>
  {
    RCC->APB1ENR |= RCC_APB1Periph;
  }
  else
  {
    RCC->APB1ENR &= ~RCC_APB1Periph;
 8000b30:	4905      	ldr	r1, [pc, #20]	; (8000b48 <RCC_APB1PeriphClockCmd+0x38>)
 8000b32:	4b05      	ldr	r3, [pc, #20]	; (8000b48 <RCC_APB1PeriphClockCmd+0x38>)
 8000b34:	6a5a      	ldr	r2, [r3, #36]	; 0x24
 8000b36:	687b      	ldr	r3, [r7, #4]
 8000b38:	43db      	mvns	r3, r3
 8000b3a:	4013      	ands	r3, r2
 8000b3c:	624b      	str	r3, [r1, #36]	; 0x24
  }
}
 8000b3e:	bf00      	nop
 8000b40:	370c      	adds	r7, #12
 8000b42:	46bd      	mov	sp, r7
 8000b44:	bc80      	pop	{r7}
 8000b46:	4770      	bx	lr
 8000b48:	40023800 	.word	0x40023800

08000b4c <RCC_GetFlagStatus>:
  *     @arg RCC_FLAG_WWDGRST: Window Watchdog reset
  *     @arg RCC_FLAG_LPWRRST: Low Power reset
  * @retval The new state of RCC_FLAG (SET or RESET).
  */
FlagStatus RCC_GetFlagStatus(uint8_t RCC_FLAG)
{
 8000b4c:	b480      	push	{r7}
 8000b4e:	b087      	sub	sp, #28
 8000b50:	af00      	add	r7, sp, #0
 8000b52:	4603      	mov	r3, r0
 8000b54:	71fb      	strb	r3, [r7, #7]
  uint32_t tmp = 0;
 8000b56:	2300      	movs	r3, #0
 8000b58:	60fb      	str	r3, [r7, #12]
  uint32_t statusreg = 0;
 8000b5a:	2300      	movs	r3, #0
 8000b5c:	617b      	str	r3, [r7, #20]
  FlagStatus bitstatus = RESET;
 8000b5e:	2300      	movs	r3, #0
 8000b60:	74fb      	strb	r3, [r7, #19]

  /* Check the parameters */
  assert_param(IS_RCC_FLAG(RCC_FLAG));

  /* Get the RCC register index */
  tmp = RCC_FLAG >> 5;
 8000b62:	79fb      	ldrb	r3, [r7, #7]
 8000b64:	095b      	lsrs	r3, r3, #5
 8000b66:	b2db      	uxtb	r3, r3
 8000b68:	60fb      	str	r3, [r7, #12]

  if (tmp == 1)               /* The flag to check is in CR register */
 8000b6a:	68fb      	ldr	r3, [r7, #12]
 8000b6c:	2b01      	cmp	r3, #1
 8000b6e:	d103      	bne.n	8000b78 <RCC_GetFlagStatus+0x2c>
  {
    statusreg = RCC->CR;
 8000b70:	4b0e      	ldr	r3, [pc, #56]	; (8000bac <RCC_GetFlagStatus+0x60>)
 8000b72:	681b      	ldr	r3, [r3, #0]
 8000b74:	617b      	str	r3, [r7, #20]
 8000b76:	e002      	b.n	8000b7e <RCC_GetFlagStatus+0x32>
  }
  else          /* The flag to check is in CSR register (tmp == 2) */
  {
    statusreg = RCC->CSR;
 8000b78:	4b0c      	ldr	r3, [pc, #48]	; (8000bac <RCC_GetFlagStatus+0x60>)
 8000b7a:	6b5b      	ldr	r3, [r3, #52]	; 0x34
 8000b7c:	617b      	str	r3, [r7, #20]
  }

  /* Get the flag position */
  tmp = RCC_FLAG & FLAG_MASK;
 8000b7e:	79fb      	ldrb	r3, [r7, #7]
 8000b80:	f003 031f 	and.w	r3, r3, #31
 8000b84:	60fb      	str	r3, [r7, #12]

  if ((statusreg & ((uint32_t)1 << tmp)) != (uint32_t)RESET)
 8000b86:	697a      	ldr	r2, [r7, #20]
 8000b88:	68fb      	ldr	r3, [r7, #12]
 8000b8a:	fa22 f303 	lsr.w	r3, r2, r3
 8000b8e:	f003 0301 	and.w	r3, r3, #1
 8000b92:	2b00      	cmp	r3, #0
 8000b94:	d002      	beq.n	8000b9c <RCC_GetFlagStatus+0x50>
  {
    bitstatus = SET;
 8000b96:	2301      	movs	r3, #1
 8000b98:	74fb      	strb	r3, [r7, #19]
 8000b9a:	e001      	b.n	8000ba0 <RCC_GetFlagStatus+0x54>
  }
  else
  {
    bitstatus = RESET;
 8000b9c:	2300      	movs	r3, #0
 8000b9e:	74fb      	strb	r3, [r7, #19]
  }
  /* Return the flag status */
  return bitstatus;
 8000ba0:	7cfb      	ldrb	r3, [r7, #19]
}
 8000ba2:	4618      	mov	r0, r3
 8000ba4:	371c      	adds	r7, #28
 8000ba6:	46bd      	mov	sp, r7
 8000ba8:	bc80      	pop	{r7}
 8000baa:	4770      	bx	lr
 8000bac:	40023800 	.word	0x40023800

08000bb0 <USART_Init>:
  * @param  USART_InitStruct: pointer to a USART_InitTypeDef structure that 
  *        contains the configuration information for the specified USART peripheral.
  * @retval None.
  */
void USART_Init(USART_TypeDef* USARTx, USART_InitTypeDef* USART_InitStruct)
{
 8000bb0:	b580      	push	{r7, lr}
 8000bb2:	b08a      	sub	sp, #40	; 0x28
 8000bb4:	af00      	add	r7, sp, #0
 8000bb6:	6078      	str	r0, [r7, #4]
 8000bb8:	6039      	str	r1, [r7, #0]
  uint32_t tmpreg = 0x00, apbclock = 0x00;
 8000bba:	2300      	movs	r3, #0
 8000bbc:	627b      	str	r3, [r7, #36]	; 0x24
 8000bbe:	2300      	movs	r3, #0
 8000bc0:	623b      	str	r3, [r7, #32]
  uint32_t integerdivider = 0x00;
 8000bc2:	2300      	movs	r3, #0
 8000bc4:	61fb      	str	r3, [r7, #28]
  uint32_t fractionaldivider = 0x00;
 8000bc6:	2300      	movs	r3, #0
 8000bc8:	61bb      	str	r3, [r7, #24]
  {
    assert_param(IS_USART_123_PERIPH(USARTx));
  }
   
/*---------------------------- USART CR2 Configuration -----------------------*/
  tmpreg = USARTx->CR2;
 8000bca:	687b      	ldr	r3, [r7, #4]
 8000bcc:	8a1b      	ldrh	r3, [r3, #16]
 8000bce:	b29b      	uxth	r3, r3
 8000bd0:	627b      	str	r3, [r7, #36]	; 0x24
  /* Clear STOP[13:12] bits */
  tmpreg &= (uint32_t)~((uint32_t)USART_CR2_STOP);
 8000bd2:	6a7b      	ldr	r3, [r7, #36]	; 0x24
 8000bd4:	f423 5340 	bic.w	r3, r3, #12288	; 0x3000
 8000bd8:	627b      	str	r3, [r7, #36]	; 0x24

  /* Configure the USART Stop Bits, Clock, CPOL, CPHA and LastBit ------------*/
  /* Set STOP[13:12] bits according to USART_StopBits value */
  tmpreg |= (uint32_t)USART_InitStruct->USART_StopBits;
 8000bda:	683b      	ldr	r3, [r7, #0]
 8000bdc:	88db      	ldrh	r3, [r3, #6]
 8000bde:	461a      	mov	r2, r3
 8000be0:	6a7b      	ldr	r3, [r7, #36]	; 0x24
 8000be2:	4313      	orrs	r3, r2
 8000be4:	627b      	str	r3, [r7, #36]	; 0x24
  
  /* Write to USART CR2 */
  USARTx->CR2 = (uint16_t)tmpreg;
 8000be6:	6a7b      	ldr	r3, [r7, #36]	; 0x24
 8000be8:	b29a      	uxth	r2, r3
 8000bea:	687b      	ldr	r3, [r7, #4]
 8000bec:	821a      	strh	r2, [r3, #16]

/*---------------------------- USART CR1 Configuration -----------------------*/
  tmpreg = USARTx->CR1;
 8000bee:	687b      	ldr	r3, [r7, #4]
 8000bf0:	899b      	ldrh	r3, [r3, #12]
 8000bf2:	b29b      	uxth	r3, r3
 8000bf4:	627b      	str	r3, [r7, #36]	; 0x24
  /* Clear M, PCE, PS, TE and RE bits */
  tmpreg &= (uint32_t)~((uint32_t)CR1_CLEAR_MASK);
 8000bf6:	6a7b      	ldr	r3, [r7, #36]	; 0x24
 8000bf8:	f423 53b0 	bic.w	r3, r3, #5632	; 0x1600
 8000bfc:	f023 030c 	bic.w	r3, r3, #12
 8000c00:	627b      	str	r3, [r7, #36]	; 0x24

  /* Configure the USART Word Length, Parity and mode ----------------------- */
  /* Set the M bits according to USART_WordLength value */
  /* Set PCE and PS bits according to USART_Parity value */
  /* Set TE and RE bits according to USART_Mode value */
  tmpreg |= (uint32_t)USART_InitStruct->USART_WordLength | USART_InitStruct->USART_Parity |
 8000c02:	683b      	ldr	r3, [r7, #0]
 8000c04:	889a      	ldrh	r2, [r3, #4]
 8000c06:	683b      	ldr	r3, [r7, #0]
 8000c08:	891b      	ldrh	r3, [r3, #8]
 8000c0a:	4313      	orrs	r3, r2
 8000c0c:	b29a      	uxth	r2, r3
            USART_InitStruct->USART_Mode;
 8000c0e:	683b      	ldr	r3, [r7, #0]
 8000c10:	895b      	ldrh	r3, [r3, #10]

  /* Configure the USART Word Length, Parity and mode ----------------------- */
  /* Set the M bits according to USART_WordLength value */
  /* Set PCE and PS bits according to USART_Parity value */
  /* Set TE and RE bits according to USART_Mode value */
  tmpreg |= (uint32_t)USART_InitStruct->USART_WordLength | USART_InitStruct->USART_Parity |
 8000c12:	4313      	orrs	r3, r2
 8000c14:	b29b      	uxth	r3, r3
 8000c16:	461a      	mov	r2, r3
 8000c18:	6a7b      	ldr	r3, [r7, #36]	; 0x24
 8000c1a:	4313      	orrs	r3, r2
 8000c1c:	627b      	str	r3, [r7, #36]	; 0x24
            USART_InitStruct->USART_Mode;

  /* Write to USART CR1 */
  USARTx->CR1 = (uint16_t)tmpreg;
 8000c1e:	6a7b      	ldr	r3, [r7, #36]	; 0x24
 8000c20:	b29a      	uxth	r2, r3
 8000c22:	687b      	ldr	r3, [r7, #4]
 8000c24:	819a      	strh	r2, [r3, #12]

/*---------------------------- USART CR3 Configuration -----------------------*/  
  tmpreg = USARTx->CR3;
 8000c26:	687b      	ldr	r3, [r7, #4]
 8000c28:	8a9b      	ldrh	r3, [r3, #20]
 8000c2a:	b29b      	uxth	r3, r3
 8000c2c:	627b      	str	r3, [r7, #36]	; 0x24
  /* Clear CTSE and RTSE bits */
  tmpreg &= (uint32_t)~((uint32_t)CR3_CLEAR_MASK);
 8000c2e:	6a7b      	ldr	r3, [r7, #36]	; 0x24
 8000c30:	f423 7340 	bic.w	r3, r3, #768	; 0x300
 8000c34:	627b      	str	r3, [r7, #36]	; 0x24

  /* Configure the USART HFC -------------------------------------------------*/
  /* Set CTSE and RTSE bits according to USART_HardwareFlowControl value */
  tmpreg |= USART_InitStruct->USART_HardwareFlowControl;
 8000c36:	683b      	ldr	r3, [r7, #0]
 8000c38:	899b      	ldrh	r3, [r3, #12]
 8000c3a:	461a      	mov	r2, r3
 8000c3c:	6a7b      	ldr	r3, [r7, #36]	; 0x24
 8000c3e:	4313      	orrs	r3, r2
 8000c40:	627b      	str	r3, [r7, #36]	; 0x24

  /* Write to USART CR3 */
  USARTx->CR3 = (uint16_t)tmpreg;
 8000c42:	6a7b      	ldr	r3, [r7, #36]	; 0x24
 8000c44:	b29a      	uxth	r2, r3
 8000c46:	687b      	ldr	r3, [r7, #4]
 8000c48:	829a      	strh	r2, [r3, #20]

/*---------------------------- USART BRR Configuration -----------------------*/
  /* Configure the USART Baud Rate -------------------------------------------*/
  RCC_GetClocksFreq(&RCC_ClocksStatus);
 8000c4a:	f107 0308 	add.w	r3, r7, #8
 8000c4e:	4618      	mov	r0, r3
 8000c50:	f7ff fe48 	bl	80008e4 <RCC_GetClocksFreq>
  if (USARTx == USART1) 
 8000c54:	687b      	ldr	r3, [r7, #4]
 8000c56:	4a2e      	ldr	r2, [pc, #184]	; (8000d10 <USART_Init+0x160>)
 8000c58:	4293      	cmp	r3, r2
 8000c5a:	d102      	bne.n	8000c62 <USART_Init+0xb2>
  {
    apbclock = RCC_ClocksStatus.PCLK2_Frequency;
 8000c5c:	697b      	ldr	r3, [r7, #20]
 8000c5e:	623b      	str	r3, [r7, #32]
 8000c60:	e001      	b.n	8000c66 <USART_Init+0xb6>
  }
  else
  {
    apbclock = RCC_ClocksStatus.PCLK1_Frequency;
 8000c62:	693b      	ldr	r3, [r7, #16]
 8000c64:	623b      	str	r3, [r7, #32]
  }

  /* Determine the integer part */
  if ((USARTx->CR1 & USART_CR1_OVER8) != 0)
 8000c66:	687b      	ldr	r3, [r7, #4]
 8000c68:	899b      	ldrh	r3, [r3, #12]
 8000c6a:	b29b      	uxth	r3, r3
 8000c6c:	b21b      	sxth	r3, r3
 8000c6e:	2b00      	cmp	r3, #0
 8000c70:	da0c      	bge.n	8000c8c <USART_Init+0xdc>
  {
    /* Integer part computing in case Oversampling mode is 8 Samples */
    integerdivider = ((25 * apbclock) / (2 * (USART_InitStruct->USART_BaudRate)));    
 8000c72:	6a3a      	ldr	r2, [r7, #32]
 8000c74:	4613      	mov	r3, r2
 8000c76:	009b      	lsls	r3, r3, #2
 8000c78:	4413      	add	r3, r2
 8000c7a:	009a      	lsls	r2, r3, #2
 8000c7c:	441a      	add	r2, r3
 8000c7e:	683b      	ldr	r3, [r7, #0]
 8000c80:	681b      	ldr	r3, [r3, #0]
 8000c82:	005b      	lsls	r3, r3, #1
 8000c84:	fbb2 f3f3 	udiv	r3, r2, r3
 8000c88:	61fb      	str	r3, [r7, #28]
 8000c8a:	e00b      	b.n	8000ca4 <USART_Init+0xf4>
  }
  else /* if ((USARTx->CR1 & CR1_OVER8_Set) == 0) */
  {
    /* Integer part computing in case Oversampling mode is 16 Samples */
    integerdivider = ((25 * apbclock) / (4 * (USART_InitStruct->USART_BaudRate)));    
 8000c8c:	6a3a      	ldr	r2, [r7, #32]
 8000c8e:	4613      	mov	r3, r2
 8000c90:	009b      	lsls	r3, r3, #2
 8000c92:	4413      	add	r3, r2
 8000c94:	009a      	lsls	r2, r3, #2
 8000c96:	441a      	add	r2, r3
 8000c98:	683b      	ldr	r3, [r7, #0]
 8000c9a:	681b      	ldr	r3, [r3, #0]
 8000c9c:	009b      	lsls	r3, r3, #2
 8000c9e:	fbb2 f3f3 	udiv	r3, r2, r3
 8000ca2:	61fb      	str	r3, [r7, #28]
  }
  tmpreg = (integerdivider / 100) << 4;
 8000ca4:	69fb      	ldr	r3, [r7, #28]
 8000ca6:	4a1b      	ldr	r2, [pc, #108]	; (8000d14 <USART_Init+0x164>)
 8000ca8:	fba2 2303 	umull	r2, r3, r2, r3
 8000cac:	095b      	lsrs	r3, r3, #5
 8000cae:	011b      	lsls	r3, r3, #4
 8000cb0:	627b      	str	r3, [r7, #36]	; 0x24

  /* Determine the fractional part */
  fractionaldivider = integerdivider - (100 * (tmpreg >> 4));
 8000cb2:	6a7b      	ldr	r3, [r7, #36]	; 0x24
 8000cb4:	091b      	lsrs	r3, r3, #4
 8000cb6:	2264      	movs	r2, #100	; 0x64
 8000cb8:	fb02 f303 	mul.w	r3, r2, r3
 8000cbc:	69fa      	ldr	r2, [r7, #28]
 8000cbe:	1ad3      	subs	r3, r2, r3
 8000cc0:	61bb      	str	r3, [r7, #24]

  /* Implement the fractional part in the register */
  if ((USARTx->CR1 & USART_CR1_OVER8) != 0)
 8000cc2:	687b      	ldr	r3, [r7, #4]
 8000cc4:	899b      	ldrh	r3, [r3, #12]
 8000cc6:	b29b      	uxth	r3, r3
 8000cc8:	b21b      	sxth	r3, r3
 8000cca:	2b00      	cmp	r3, #0
 8000ccc:	da0c      	bge.n	8000ce8 <USART_Init+0x138>
  {
    tmpreg |= ((((fractionaldivider * 8) + 50) / 100)) & ((uint8_t)0x07);
 8000cce:	69bb      	ldr	r3, [r7, #24]
 8000cd0:	00db      	lsls	r3, r3, #3
 8000cd2:	3332      	adds	r3, #50	; 0x32
 8000cd4:	4a0f      	ldr	r2, [pc, #60]	; (8000d14 <USART_Init+0x164>)
 8000cd6:	fba2 2303 	umull	r2, r3, r2, r3
 8000cda:	095b      	lsrs	r3, r3, #5
 8000cdc:	f003 0307 	and.w	r3, r3, #7
 8000ce0:	6a7a      	ldr	r2, [r7, #36]	; 0x24
 8000ce2:	4313      	orrs	r3, r2
 8000ce4:	627b      	str	r3, [r7, #36]	; 0x24
 8000ce6:	e00b      	b.n	8000d00 <USART_Init+0x150>
  }
  else /* if ((USARTx->CR1 & CR1_OVER8_Set) == 0) */
  {
    tmpreg |= ((((fractionaldivider * 16) + 50) / 100)) & ((uint8_t)0x0F);
 8000ce8:	69bb      	ldr	r3, [r7, #24]
 8000cea:	011b      	lsls	r3, r3, #4
 8000cec:	3332      	adds	r3, #50	; 0x32
 8000cee:	4a09      	ldr	r2, [pc, #36]	; (8000d14 <USART_Init+0x164>)
 8000cf0:	fba2 2303 	umull	r2, r3, r2, r3
 8000cf4:	095b      	lsrs	r3, r3, #5
 8000cf6:	f003 030f 	and.w	r3, r3, #15
 8000cfa:	6a7a      	ldr	r2, [r7, #36]	; 0x24
 8000cfc:	4313      	orrs	r3, r2
 8000cfe:	627b      	str	r3, [r7, #36]	; 0x24
  }
 
  /* Write to USART BRR */
  USARTx->BRR = (uint16_t)tmpreg;
 8000d00:	6a7b      	ldr	r3, [r7, #36]	; 0x24
 8000d02:	b29a      	uxth	r2, r3
 8000d04:	687b      	ldr	r3, [r7, #4]
 8000d06:	811a      	strh	r2, [r3, #8]
}
 8000d08:	bf00      	nop
 8000d0a:	3728      	adds	r7, #40	; 0x28
 8000d0c:	46bd      	mov	sp, r7
 8000d0e:	bd80      	pop	{r7, pc}
 8000d10:	40013800 	.word	0x40013800
 8000d14:	51eb851f 	.word	0x51eb851f

08000d18 <USART_Cmd>:
  * @param  NewState: new state of the USARTx peripheral.
  *         This parameter can be: ENABLE or DISABLE.
  * @retval None.
  */
void USART_Cmd(USART_TypeDef* USARTx, FunctionalState NewState)
{
 8000d18:	b480      	push	{r7}
 8000d1a:	b083      	sub	sp, #12
 8000d1c:	af00      	add	r7, sp, #0
 8000d1e:	6078      	str	r0, [r7, #4]
 8000d20:	460b      	mov	r3, r1
 8000d22:	70fb      	strb	r3, [r7, #3]
  /* Check the parameters */
  assert_param(IS_USART_ALL_PERIPH(USARTx));
  assert_param(IS_FUNCTIONAL_STATE(NewState));
  
  if (NewState != DISABLE)
 8000d24:	78fb      	ldrb	r3, [r7, #3]
 8000d26:	2b00      	cmp	r3, #0
 8000d28:	d008      	beq.n	8000d3c <USART_Cmd+0x24>
  {
    /* Enable the selected USART by setting the UE bit in the CR1 register */
    USARTx->CR1 |= USART_CR1_UE;
 8000d2a:	687b      	ldr	r3, [r7, #4]
 8000d2c:	899b      	ldrh	r3, [r3, #12]
 8000d2e:	b29b      	uxth	r3, r3
 8000d30:	f443 5300 	orr.w	r3, r3, #8192	; 0x2000
 8000d34:	b29a      	uxth	r2, r3
 8000d36:	687b      	ldr	r3, [r7, #4]
 8000d38:	819a      	strh	r2, [r3, #12]
  else
  {
    /* Disable the selected USART by clearing the UE bit in the CR1 register */
    USARTx->CR1 &= (uint16_t)~((uint16_t)USART_CR1_UE);
  }
}
 8000d3a:	e007      	b.n	8000d4c <USART_Cmd+0x34>
    USARTx->CR1 |= USART_CR1_UE;
  }
  else
  {
    /* Disable the selected USART by clearing the UE bit in the CR1 register */
    USARTx->CR1 &= (uint16_t)~((uint16_t)USART_CR1_UE);
 8000d3c:	687b      	ldr	r3, [r7, #4]
 8000d3e:	899b      	ldrh	r3, [r3, #12]
 8000d40:	b29b      	uxth	r3, r3
 8000d42:	f423 5300 	bic.w	r3, r3, #8192	; 0x2000
 8000d46:	b29a      	uxth	r2, r3
 8000d48:	687b      	ldr	r3, [r7, #4]
 8000d4a:	819a      	strh	r2, [r3, #12]
  }
}
 8000d4c:	bf00      	nop
 8000d4e:	370c      	adds	r7, #12
 8000d50:	46bd      	mov	sp, r7
 8000d52:	bc80      	pop	{r7}
 8000d54:	4770      	bx	lr
 8000d56:	bf00      	nop

08000d58 <USART_SendData>:
  *   USART1, USART2, USART3, UART4 or UART5.
  * @param  Data: the data to transmit.
  * @retval None.
  */
void USART_SendData(USART_TypeDef* USARTx, uint16_t Data)
{
 8000d58:	b480      	push	{r7}
 8000d5a:	b083      	sub	sp, #12
 8000d5c:	af00      	add	r7, sp, #0
 8000d5e:	6078      	str	r0, [r7, #4]
 8000d60:	460b      	mov	r3, r1
 8000d62:	807b      	strh	r3, [r7, #2]
  /* Check the parameters */
  assert_param(IS_USART_ALL_PERIPH(USARTx));
  assert_param(IS_USART_DATA(Data)); 
    
  /* Transmit Data */
  USARTx->DR = (Data & (uint16_t)0x01FF);
 8000d64:	887b      	ldrh	r3, [r7, #2]
 8000d66:	f3c3 0308 	ubfx	r3, r3, #0, #9
 8000d6a:	b29a      	uxth	r2, r3
 8000d6c:	687b      	ldr	r3, [r7, #4]
 8000d6e:	809a      	strh	r2, [r3, #4]
}
 8000d70:	bf00      	nop
 8000d72:	370c      	adds	r7, #12
 8000d74:	46bd      	mov	sp, r7
 8000d76:	bc80      	pop	{r7}
 8000d78:	4770      	bx	lr
 8000d7a:	bf00      	nop

08000d7c <USART_ITConfig>:
  * @param  NewState: new state of the specified USARTx interrupts.
  *   This parameter can be: ENABLE or DISABLE.
  * @retval None.
  */
void USART_ITConfig(USART_TypeDef* USARTx, uint16_t USART_IT, FunctionalState NewState)
{
 8000d7c:	b480      	push	{r7}
 8000d7e:	b087      	sub	sp, #28
 8000d80:	af00      	add	r7, sp, #0
 8000d82:	6078      	str	r0, [r7, #4]
 8000d84:	460b      	mov	r3, r1
 8000d86:	807b      	strh	r3, [r7, #2]
 8000d88:	4613      	mov	r3, r2
 8000d8a:	707b      	strb	r3, [r7, #1]
  uint32_t usartreg = 0x00, itpos = 0x00, itmask = 0x00;
 8000d8c:	2300      	movs	r3, #0
 8000d8e:	613b      	str	r3, [r7, #16]
 8000d90:	2300      	movs	r3, #0
 8000d92:	60fb      	str	r3, [r7, #12]
 8000d94:	2300      	movs	r3, #0
 8000d96:	60bb      	str	r3, [r7, #8]
  uint32_t usartxbase = 0x00;
 8000d98:	2300      	movs	r3, #0
 8000d9a:	617b      	str	r3, [r7, #20]
  if (USART_IT == USART_IT_CTS)
  {
    assert_param(IS_USART_123_PERIPH(USARTx));
  } 
    
  usartxbase = (uint32_t)USARTx;
 8000d9c:	687b      	ldr	r3, [r7, #4]
 8000d9e:	617b      	str	r3, [r7, #20]

  /* Get the USART register index */
  usartreg = (((uint8_t)USART_IT) >> 0x05);
 8000da0:	887b      	ldrh	r3, [r7, #2]
 8000da2:	b2db      	uxtb	r3, r3
 8000da4:	095b      	lsrs	r3, r3, #5
 8000da6:	b2db      	uxtb	r3, r3
 8000da8:	613b      	str	r3, [r7, #16]

  /* Get the interrupt position */
  itpos = USART_IT & IT_MASK;
 8000daa:	887b      	ldrh	r3, [r7, #2]
 8000dac:	f003 031f 	and.w	r3, r3, #31
 8000db0:	60fb      	str	r3, [r7, #12]
  itmask = (((uint32_t)0x01) << itpos);
 8000db2:	2201      	movs	r2, #1
 8000db4:	68fb      	ldr	r3, [r7, #12]
 8000db6:	fa02 f303 	lsl.w	r3, r2, r3
 8000dba:	60bb      	str	r3, [r7, #8]
    
  if (usartreg == 0x01) /* The IT is in CR1 register */
 8000dbc:	693b      	ldr	r3, [r7, #16]
 8000dbe:	2b01      	cmp	r3, #1
 8000dc0:	d103      	bne.n	8000dca <USART_ITConfig+0x4e>
  {
    usartxbase += 0x0C;
 8000dc2:	697b      	ldr	r3, [r7, #20]
 8000dc4:	330c      	adds	r3, #12
 8000dc6:	617b      	str	r3, [r7, #20]
 8000dc8:	e009      	b.n	8000dde <USART_ITConfig+0x62>
  }
  else if (usartreg == 0x02) /* The IT is in CR2 register */
 8000dca:	693b      	ldr	r3, [r7, #16]
 8000dcc:	2b02      	cmp	r3, #2
 8000dce:	d103      	bne.n	8000dd8 <USART_ITConfig+0x5c>
  {
    usartxbase += 0x10;
 8000dd0:	697b      	ldr	r3, [r7, #20]
 8000dd2:	3310      	adds	r3, #16
 8000dd4:	617b      	str	r3, [r7, #20]
 8000dd6:	e002      	b.n	8000dde <USART_ITConfig+0x62>
  }
  else /* The IT is in CR3 register */
  {
    usartxbase += 0x14; 
 8000dd8:	697b      	ldr	r3, [r7, #20]
 8000dda:	3314      	adds	r3, #20
 8000ddc:	617b      	str	r3, [r7, #20]
  }
  if (NewState != DISABLE)
 8000dde:	787b      	ldrb	r3, [r7, #1]
 8000de0:	2b00      	cmp	r3, #0
 8000de2:	d006      	beq.n	8000df2 <USART_ITConfig+0x76>
  {
    *(__IO uint32_t*)usartxbase  |= itmask;
 8000de4:	697b      	ldr	r3, [r7, #20]
 8000de6:	697a      	ldr	r2, [r7, #20]
 8000de8:	6811      	ldr	r1, [r2, #0]
 8000dea:	68ba      	ldr	r2, [r7, #8]
 8000dec:	430a      	orrs	r2, r1
 8000dee:	601a      	str	r2, [r3, #0]
  }
  else
  {
    *(__IO uint32_t*)usartxbase &= ~itmask;
  }
}
 8000df0:	e006      	b.n	8000e00 <USART_ITConfig+0x84>
  {
    *(__IO uint32_t*)usartxbase  |= itmask;
  }
  else
  {
    *(__IO uint32_t*)usartxbase &= ~itmask;
 8000df2:	697b      	ldr	r3, [r7, #20]
 8000df4:	697a      	ldr	r2, [r7, #20]
 8000df6:	6811      	ldr	r1, [r2, #0]
 8000df8:	68ba      	ldr	r2, [r7, #8]
 8000dfa:	43d2      	mvns	r2, r2
 8000dfc:	400a      	ands	r2, r1
 8000dfe:	601a      	str	r2, [r3, #0]
  }
}
 8000e00:	bf00      	nop
 8000e02:	371c      	adds	r7, #28
 8000e04:	46bd      	mov	sp, r7
 8000e06:	bc80      	pop	{r7}
 8000e08:	4770      	bx	lr
 8000e0a:	bf00      	nop

08000e0c <USART_GetFlagStatus>:
  *     @arg USART_FLAG_FE:   Framing Error flag.
  *     @arg USART_FLAG_PE:   Parity Error flag.
  * @retval The new state of USART_FLAG (SET or RESET).
  */
FlagStatus USART_GetFlagStatus(USART_TypeDef* USARTx, uint16_t USART_FLAG)
{
 8000e0c:	b480      	push	{r7}
 8000e0e:	b085      	sub	sp, #20
 8000e10:	af00      	add	r7, sp, #0
 8000e12:	6078      	str	r0, [r7, #4]
 8000e14:	460b      	mov	r3, r1
 8000e16:	807b      	strh	r3, [r7, #2]
  FlagStatus bitstatus = RESET;
 8000e18:	2300      	movs	r3, #0
 8000e1a:	73fb      	strb	r3, [r7, #15]
  if (USART_FLAG == USART_FLAG_CTS)
  {
    assert_param(IS_USART_123_PERIPH(USARTx));
  } 
    
  if ((USARTx->SR & USART_FLAG) != (uint16_t)RESET)
 8000e1c:	687b      	ldr	r3, [r7, #4]
 8000e1e:	881b      	ldrh	r3, [r3, #0]
 8000e20:	b29a      	uxth	r2, r3
 8000e22:	887b      	ldrh	r3, [r7, #2]
 8000e24:	4013      	ands	r3, r2
 8000e26:	b29b      	uxth	r3, r3
 8000e28:	2b00      	cmp	r3, #0
 8000e2a:	d002      	beq.n	8000e32 <USART_GetFlagStatus+0x26>
  {
    bitstatus = SET;
 8000e2c:	2301      	movs	r3, #1
 8000e2e:	73fb      	strb	r3, [r7, #15]
 8000e30:	e001      	b.n	8000e36 <USART_GetFlagStatus+0x2a>
  }
  else
  {
    bitstatus = RESET;
 8000e32:	2300      	movs	r3, #0
 8000e34:	73fb      	strb	r3, [r7, #15]
  }
  return bitstatus;
 8000e36:	7bfb      	ldrb	r3, [r7, #15]
}
 8000e38:	4618      	mov	r0, r3
 8000e3a:	3714      	adds	r7, #20
 8000e3c:	46bd      	mov	sp, r7
 8000e3e:	bc80      	pop	{r7}
 8000e40:	4770      	bx	lr
 8000e42:	bf00      	nop

08000e44 <main>:
**  Abstract: main program
**
**===========================================================================
*/
int main(void)
{
 8000e44:	b580      	push	{r7, lr}
 8000e46:	af00      	add	r7, sp, #0


  GPIO_init();
 8000e48:	f000 fa38 	bl	80012bc <GPIO_init>
  ADC_init();
 8000e4c:	f000 fa72 	bl	8001334 <ADC_init>
  UART_init();
 8000e50:	f000 f9d0 	bl	80011f4 <UART_init>
  NVIC_init();
 8000e54:	f000 f9f2 	bl	800123c <NVIC_init>

  USART_SendData(USART2, ' ');
 8000e58:	2120      	movs	r1, #32
 8000e5a:	4802      	ldr	r0, [pc, #8]	; (8000e64 <main+0x20>)
 8000e5c:	f7ff ff7c 	bl	8000d58 <USART_SendData>
  {




  }
 8000e60:	e7fe      	b.n	8000e60 <main+0x1c>
 8000e62:	bf00      	nop
 8000e64:	40004400 	.word	0x40004400

08000e68 <Reset_Handler>:

  .section .text.Reset_Handler
  .weak Reset_Handler
  .type Reset_Handler, %function
Reset_Handler:
  ldr   sp, =_estack    /* Atollic update: set stack pointer */
 8000e68:	f8df d034 	ldr.w	sp, [pc, #52]	; 8000ea0 <LoopFillZerobss+0x14>

/* Copy the data segment initializers from flash to SRAM */
  movs r1, #0
 8000e6c:	2100      	movs	r1, #0
  b LoopCopyDataInit
 8000e6e:	e003      	b.n	8000e78 <LoopCopyDataInit>

08000e70 <CopyDataInit>:

CopyDataInit:
  ldr r3, =_sidata
 8000e70:	4b0c      	ldr	r3, [pc, #48]	; (8000ea4 <LoopFillZerobss+0x18>)
  ldr r3, [r3, r1]
 8000e72:	585b      	ldr	r3, [r3, r1]
  str r3, [r0, r1]
 8000e74:	5043      	str	r3, [r0, r1]
  adds r1, r1, #4
 8000e76:	3104      	adds	r1, #4

08000e78 <LoopCopyDataInit>:

LoopCopyDataInit:
  ldr r0, =_sdata
 8000e78:	480b      	ldr	r0, [pc, #44]	; (8000ea8 <LoopFillZerobss+0x1c>)
  ldr r3, =_edata
 8000e7a:	4b0c      	ldr	r3, [pc, #48]	; (8000eac <LoopFillZerobss+0x20>)
  adds r2, r0, r1
 8000e7c:	1842      	adds	r2, r0, r1
  cmp r2, r3
 8000e7e:	429a      	cmp	r2, r3
  bcc CopyDataInit
 8000e80:	d3f6      	bcc.n	8000e70 <CopyDataInit>
  ldr r2, =_sbss
 8000e82:	4a0b      	ldr	r2, [pc, #44]	; (8000eb0 <LoopFillZerobss+0x24>)
  b LoopFillZerobss
 8000e84:	e002      	b.n	8000e8c <LoopFillZerobss>

08000e86 <FillZerobss>:
/* Zero fill the bss segment. */
FillZerobss:
  movs r3, #0
 8000e86:	2300      	movs	r3, #0
  str r3, [r2], #4
 8000e88:	f842 3b04 	str.w	r3, [r2], #4

08000e8c <LoopFillZerobss>:

LoopFillZerobss:
  ldr r3, = _ebss
 8000e8c:	4b09      	ldr	r3, [pc, #36]	; (8000eb4 <LoopFillZerobss+0x28>)
  cmp r2, r3
 8000e8e:	429a      	cmp	r2, r3
  bcc FillZerobss
 8000e90:	d3f9      	bcc.n	8000e86 <FillZerobss>

/* Call the clock system intitialization function.*/
    bl  SystemInit
 8000e92:	f000 f841 	bl	8000f18 <SystemInit>
/* Call static constructors */
    bl __libc_init_array
 8000e96:	f000 fa83 	bl	80013a0 <__libc_init_array>
/* Call the application's entry point.*/
  bl main
 8000e9a:	f7ff ffd3 	bl	8000e44 <main>
  bx lr
 8000e9e:	4770      	bx	lr

  .section .text.Reset_Handler
  .weak Reset_Handler
  .type Reset_Handler, %function
Reset_Handler:
  ldr   sp, =_estack    /* Atollic update: set stack pointer */
 8000ea0:	20014000 	.word	0x20014000
/* Copy the data segment initializers from flash to SRAM */
  movs r1, #0
  b LoopCopyDataInit

CopyDataInit:
  ldr r3, =_sidata
 8000ea4:	0800140c 	.word	0x0800140c
  ldr r3, [r3, r1]
  str r3, [r0, r1]
  adds r1, r1, #4

LoopCopyDataInit:
  ldr r0, =_sdata
 8000ea8:	20000000 	.word	0x20000000
  ldr r3, =_edata
 8000eac:	2000001c 	.word	0x2000001c
  adds r2, r0, r1
  cmp r2, r3
  bcc CopyDataInit
  ldr r2, =_sbss
 8000eb0:	2000001c 	.word	0x2000001c
FillZerobss:
  movs r3, #0
  str r3, [r2], #4

LoopFillZerobss:
  ldr r3, = _ebss
 8000eb4:	2000004c 	.word	0x2000004c

08000eb8 <AES_IRQHandler>:
 * @retval : None
*/
    .section .text.Default_Handler,"ax",%progbits
Default_Handler:
Infinite_Loop:
  b Infinite_Loop
 8000eb8:	e7fe      	b.n	8000eb8 <AES_IRQHandler>
	...

08000ebc <NMI_Handler>:
  * @brief  This function handles NMI exception.
  * @param  None
  * @retval None
  */
void NMI_Handler(void)
{
 8000ebc:	b480      	push	{r7}
 8000ebe:	af00      	add	r7, sp, #0
}
 8000ec0:	bf00      	nop
 8000ec2:	46bd      	mov	sp, r7
 8000ec4:	bc80      	pop	{r7}
 8000ec6:	4770      	bx	lr

08000ec8 <HardFault_Handler>:
  * @brief  This function handles Hard Fault exception.
  * @param  None
  * @retval None
  */
void HardFault_Handler(void)
{
 8000ec8:	b480      	push	{r7}
 8000eca:	af00      	add	r7, sp, #0
  /* Go to infinite loop when Hard Fault exception occurs */
  while (1)
  {
  }
 8000ecc:	e7fe      	b.n	8000ecc <HardFault_Handler+0x4>
 8000ece:	bf00      	nop

08000ed0 <MemManage_Handler>:
  * @brief  This function handles Memory Manage exception.
  * @param  None
  * @retval None
  */
void MemManage_Handler(void)
{
 8000ed0:	b480      	push	{r7}
 8000ed2:	af00      	add	r7, sp, #0
  /* Go to infinite loop when Memory Manage exception occurs */
  while (1)
  {
  }
 8000ed4:	e7fe      	b.n	8000ed4 <MemManage_Handler+0x4>
 8000ed6:	bf00      	nop

08000ed8 <BusFault_Handler>:
  * @brief  This function handles Bus Fault exception.
  * @param  None
  * @retval None
  */
void BusFault_Handler(void)
{
 8000ed8:	b480      	push	{r7}
 8000eda:	af00      	add	r7, sp, #0
  /* Go to infinite loop when Bus Fault exception occurs */
  while (1)
  {
  }
 8000edc:	e7fe      	b.n	8000edc <BusFault_Handler+0x4>
 8000ede:	bf00      	nop

08000ee0 <UsageFault_Handler>:
  * @brief  This function handles Usage Fault exception.
  * @param  None
  * @retval None
  */
void UsageFault_Handler(void)
{
 8000ee0:	b480      	push	{r7}
 8000ee2:	af00      	add	r7, sp, #0
  /* Go to infinite loop when Usage Fault exception occurs */
  while (1)
  {
  }
 8000ee4:	e7fe      	b.n	8000ee4 <UsageFault_Handler+0x4>
 8000ee6:	bf00      	nop

08000ee8 <SVC_Handler>:
  * @brief  This function handles SVCall exception.
  * @param  None
  * @retval None
  */
void SVC_Handler(void)
{
 8000ee8:	b480      	push	{r7}
 8000eea:	af00      	add	r7, sp, #0
}
 8000eec:	bf00      	nop
 8000eee:	46bd      	mov	sp, r7
 8000ef0:	bc80      	pop	{r7}
 8000ef2:	4770      	bx	lr

08000ef4 <DebugMon_Handler>:
  * @brief  This function handles Debug Monitor exception.
  * @param  None
  * @retval None
  */
void DebugMon_Handler(void)
{
 8000ef4:	b480      	push	{r7}
 8000ef6:	af00      	add	r7, sp, #0
}
 8000ef8:	bf00      	nop
 8000efa:	46bd      	mov	sp, r7
 8000efc:	bc80      	pop	{r7}
 8000efe:	4770      	bx	lr

08000f00 <PendSV_Handler>:
  * @brief  This function handles PendSVC exception.
  * @param  None
  * @retval None
  */
void PendSV_Handler(void)
{
 8000f00:	b480      	push	{r7}
 8000f02:	af00      	add	r7, sp, #0
}
 8000f04:	bf00      	nop
 8000f06:	46bd      	mov	sp, r7
 8000f08:	bc80      	pop	{r7}
 8000f0a:	4770      	bx	lr

08000f0c <SysTick_Handler>:
  * @brief  This function handles SysTick Handler.
  * @param  None
  * @retval None
  */
void SysTick_Handler(void)
{
 8000f0c:	b480      	push	{r7}
 8000f0e:	af00      	add	r7, sp, #0
	/*  TimingDelay_Decrement(); */
#ifdef USE_STM32L_DISCOVERY
  TimingDelay_Decrement();
#endif
}
 8000f10:	bf00      	nop
 8000f12:	46bd      	mov	sp, r7
 8000f14:	bc80      	pop	{r7}
 8000f16:	4770      	bx	lr

08000f18 <SystemInit>:
  *         SystemCoreClock variable.
  * @param  None
  * @retval None
  */
void SystemInit (void)
{
 8000f18:	b580      	push	{r7, lr}
 8000f1a:	af00      	add	r7, sp, #0
  /*!< Set MSION bit */
  RCC->CR |= (uint32_t)0x00000100;
 8000f1c:	4a15      	ldr	r2, [pc, #84]	; (8000f74 <SystemInit+0x5c>)
 8000f1e:	4b15      	ldr	r3, [pc, #84]	; (8000f74 <SystemInit+0x5c>)
 8000f20:	681b      	ldr	r3, [r3, #0]
 8000f22:	f443 7380 	orr.w	r3, r3, #256	; 0x100
 8000f26:	6013      	str	r3, [r2, #0]

  /*!< Reset SW[1:0], HPRE[3:0], PPRE1[2:0], PPRE2[2:0], MCOSEL[2:0] and MCOPRE[2:0] bits */
  RCC->CFGR &= (uint32_t)0x88FFC00C;
 8000f28:	4912      	ldr	r1, [pc, #72]	; (8000f74 <SystemInit+0x5c>)
 8000f2a:	4b12      	ldr	r3, [pc, #72]	; (8000f74 <SystemInit+0x5c>)
 8000f2c:	689a      	ldr	r2, [r3, #8]
 8000f2e:	4b12      	ldr	r3, [pc, #72]	; (8000f78 <SystemInit+0x60>)
 8000f30:	4013      	ands	r3, r2
 8000f32:	608b      	str	r3, [r1, #8]
  
  /*!< Reset HSION, HSEON, CSSON and PLLON bits */
  RCC->CR &= (uint32_t)0xEEFEFFFE;
 8000f34:	4a0f      	ldr	r2, [pc, #60]	; (8000f74 <SystemInit+0x5c>)
 8000f36:	4b0f      	ldr	r3, [pc, #60]	; (8000f74 <SystemInit+0x5c>)
 8000f38:	681b      	ldr	r3, [r3, #0]
 8000f3a:	f023 5388 	bic.w	r3, r3, #285212672	; 0x11000000
 8000f3e:	f023 1301 	bic.w	r3, r3, #65537	; 0x10001
 8000f42:	6013      	str	r3, [r2, #0]

  /*!< Reset HSEBYP bit */
  RCC->CR &= (uint32_t)0xFFFBFFFF;
 8000f44:	4a0b      	ldr	r2, [pc, #44]	; (8000f74 <SystemInit+0x5c>)
 8000f46:	4b0b      	ldr	r3, [pc, #44]	; (8000f74 <SystemInit+0x5c>)
 8000f48:	681b      	ldr	r3, [r3, #0]
 8000f4a:	f423 2380 	bic.w	r3, r3, #262144	; 0x40000
 8000f4e:	6013      	str	r3, [r2, #0]

  /*!< Reset PLLSRC, PLLMUL[3:0] and PLLDIV[1:0] bits */
  RCC->CFGR &= (uint32_t)0xFF02FFFF;
 8000f50:	4a08      	ldr	r2, [pc, #32]	; (8000f74 <SystemInit+0x5c>)
 8000f52:	4b08      	ldr	r3, [pc, #32]	; (8000f74 <SystemInit+0x5c>)
 8000f54:	689b      	ldr	r3, [r3, #8]
 8000f56:	f423 037d 	bic.w	r3, r3, #16580608	; 0xfd0000
 8000f5a:	6093      	str	r3, [r2, #8]

  /*!< Disable all interrupts */
  RCC->CIR = 0x00000000;
 8000f5c:	4b05      	ldr	r3, [pc, #20]	; (8000f74 <SystemInit+0x5c>)
 8000f5e:	2200      	movs	r2, #0
 8000f60:	60da      	str	r2, [r3, #12]
#ifdef DATA_IN_ExtSRAM
  SystemInit_ExtMemCtl(); 
#endif /* DATA_IN_ExtSRAM */
    
  /* Configure the System clock frequency, AHB/APBx prescalers and Flash settings */
  SetSysClock();
 8000f62:	f000 f80d 	bl	8000f80 <SetSysClock>

#ifdef VECT_TAB_SRAM
  SCB->VTOR = SRAM_BASE | VECT_TAB_OFFSET; /* Vector Table Relocation in Internal SRAM. */
#else
  SCB->VTOR = FLASH_BASE | VECT_TAB_OFFSET; /* Vector Table Relocation in Internal FLASH. */
 8000f66:	4b05      	ldr	r3, [pc, #20]	; (8000f7c <SystemInit+0x64>)
 8000f68:	f04f 6200 	mov.w	r2, #134217728	; 0x8000000
 8000f6c:	609a      	str	r2, [r3, #8]
#endif
}
 8000f6e:	bf00      	nop
 8000f70:	bd80      	pop	{r7, pc}
 8000f72:	bf00      	nop
 8000f74:	40023800 	.word	0x40023800
 8000f78:	88ffc00c 	.word	0x88ffc00c
 8000f7c:	e000ed00 	.word	0xe000ed00

08000f80 <SetSysClock>:
  *         is reset to the default reset state (done in SystemInit() function).
  * @param  None
  * @retval None
  */
static void SetSysClock(void)
{
 8000f80:	b480      	push	{r7}
 8000f82:	b083      	sub	sp, #12
 8000f84:	af00      	add	r7, sp, #0
  __IO uint32_t StartUpCounter = 0, HSEStatus = 0;
 8000f86:	2300      	movs	r3, #0
 8000f88:	607b      	str	r3, [r7, #4]
 8000f8a:	2300      	movs	r3, #0
 8000f8c:	603b      	str	r3, [r7, #0]
  
  /* SYSCLK, HCLK, PCLK2 and PCLK1 configuration ---------------------------*/
  /* Enable HSE */
  RCC->CR |= ((uint32_t)RCC_CR_HSEON);
 8000f8e:	4a41      	ldr	r2, [pc, #260]	; (8001094 <SetSysClock+0x114>)
 8000f90:	4b40      	ldr	r3, [pc, #256]	; (8001094 <SetSysClock+0x114>)
 8000f92:	681b      	ldr	r3, [r3, #0]
 8000f94:	f443 3380 	orr.w	r3, r3, #65536	; 0x10000
 8000f98:	6013      	str	r3, [r2, #0]
 
  /* Wait till HSE is ready and if Time out is reached exit */
  do
  {
    HSEStatus = RCC->CR & RCC_CR_HSERDY;
 8000f9a:	4b3e      	ldr	r3, [pc, #248]	; (8001094 <SetSysClock+0x114>)
 8000f9c:	681b      	ldr	r3, [r3, #0]
 8000f9e:	f403 3300 	and.w	r3, r3, #131072	; 0x20000
 8000fa2:	603b      	str	r3, [r7, #0]
    StartUpCounter++;
 8000fa4:	687b      	ldr	r3, [r7, #4]
 8000fa6:	3301      	adds	r3, #1
 8000fa8:	607b      	str	r3, [r7, #4]
  } while((HSEStatus == 0) && (StartUpCounter != HSE_STARTUP_TIMEOUT));
 8000faa:	683b      	ldr	r3, [r7, #0]
 8000fac:	2b00      	cmp	r3, #0
 8000fae:	d103      	bne.n	8000fb8 <SetSysClock+0x38>
 8000fb0:	687b      	ldr	r3, [r7, #4]
 8000fb2:	f5b3 6fa0 	cmp.w	r3, #1280	; 0x500
 8000fb6:	d1f0      	bne.n	8000f9a <SetSysClock+0x1a>

  if ((RCC->CR & RCC_CR_HSERDY) != RESET)
 8000fb8:	4b36      	ldr	r3, [pc, #216]	; (8001094 <SetSysClock+0x114>)
 8000fba:	681b      	ldr	r3, [r3, #0]
 8000fbc:	f403 3300 	and.w	r3, r3, #131072	; 0x20000
 8000fc0:	2b00      	cmp	r3, #0
 8000fc2:	d002      	beq.n	8000fca <SetSysClock+0x4a>
  {
    HSEStatus = (uint32_t)0x01;
 8000fc4:	2301      	movs	r3, #1
 8000fc6:	603b      	str	r3, [r7, #0]
 8000fc8:	e001      	b.n	8000fce <SetSysClock+0x4e>
  }
  else
  {
    HSEStatus = (uint32_t)0x00;
 8000fca:	2300      	movs	r3, #0
 8000fcc:	603b      	str	r3, [r7, #0]
  }
  
  if (HSEStatus == (uint32_t)0x01)
 8000fce:	683b      	ldr	r3, [r7, #0]
 8000fd0:	2b01      	cmp	r3, #1
 8000fd2:	d15a      	bne.n	800108a <SetSysClock+0x10a>
  {
    /* Enable 64-bit access */
    FLASH->ACR |= FLASH_ACR_ACC64;
 8000fd4:	4a30      	ldr	r2, [pc, #192]	; (8001098 <SetSysClock+0x118>)
 8000fd6:	4b30      	ldr	r3, [pc, #192]	; (8001098 <SetSysClock+0x118>)
 8000fd8:	681b      	ldr	r3, [r3, #0]
 8000fda:	f043 0304 	orr.w	r3, r3, #4
 8000fde:	6013      	str	r3, [r2, #0]
    
    /* Enable Prefetch Buffer */
    FLASH->ACR |= FLASH_ACR_PRFTEN;
 8000fe0:	4a2d      	ldr	r2, [pc, #180]	; (8001098 <SetSysClock+0x118>)
 8000fe2:	4b2d      	ldr	r3, [pc, #180]	; (8001098 <SetSysClock+0x118>)
 8000fe4:	681b      	ldr	r3, [r3, #0]
 8000fe6:	f043 0302 	orr.w	r3, r3, #2
 8000fea:	6013      	str	r3, [r2, #0]

    /* Flash 1 wait state */
    FLASH->ACR |= FLASH_ACR_LATENCY;
 8000fec:	4a2a      	ldr	r2, [pc, #168]	; (8001098 <SetSysClock+0x118>)
 8000fee:	4b2a      	ldr	r3, [pc, #168]	; (8001098 <SetSysClock+0x118>)
 8000ff0:	681b      	ldr	r3, [r3, #0]
 8000ff2:	f043 0301 	orr.w	r3, r3, #1
 8000ff6:	6013      	str	r3, [r2, #0]
    
    /* Power enable */
    RCC->APB1ENR |= RCC_APB1ENR_PWREN;
 8000ff8:	4a26      	ldr	r2, [pc, #152]	; (8001094 <SetSysClock+0x114>)
 8000ffa:	4b26      	ldr	r3, [pc, #152]	; (8001094 <SetSysClock+0x114>)
 8000ffc:	6a5b      	ldr	r3, [r3, #36]	; 0x24
 8000ffe:	f043 5380 	orr.w	r3, r3, #268435456	; 0x10000000
 8001002:	6253      	str	r3, [r2, #36]	; 0x24
  
    /* Select the Voltage Range 1 (1.8 V) */
    PWR->CR = PWR_CR_VOS_0;
 8001004:	4b25      	ldr	r3, [pc, #148]	; (800109c <SetSysClock+0x11c>)
 8001006:	f44f 6200 	mov.w	r2, #2048	; 0x800
 800100a:	601a      	str	r2, [r3, #0]
  
    /* Wait Until the Voltage Regulator is ready */
    while((PWR->CSR & PWR_CSR_VOSF) != RESET)
 800100c:	bf00      	nop
 800100e:	4b23      	ldr	r3, [pc, #140]	; (800109c <SetSysClock+0x11c>)
 8001010:	685b      	ldr	r3, [r3, #4]
 8001012:	f003 0310 	and.w	r3, r3, #16
 8001016:	2b00      	cmp	r3, #0
 8001018:	d1f9      	bne.n	800100e <SetSysClock+0x8e>
    {
    }
        
    /* HCLK = SYSCLK /1*/
    RCC->CFGR |= (uint32_t)RCC_CFGR_HPRE_DIV1;
 800101a:	4a1e      	ldr	r2, [pc, #120]	; (8001094 <SetSysClock+0x114>)
 800101c:	4b1d      	ldr	r3, [pc, #116]	; (8001094 <SetSysClock+0x114>)
 800101e:	689b      	ldr	r3, [r3, #8]
 8001020:	6093      	str	r3, [r2, #8]
  
    /* PCLK2 = HCLK /1*/
    RCC->CFGR |= (uint32_t)RCC_CFGR_PPRE2_DIV1;
 8001022:	4a1c      	ldr	r2, [pc, #112]	; (8001094 <SetSysClock+0x114>)
 8001024:	4b1b      	ldr	r3, [pc, #108]	; (8001094 <SetSysClock+0x114>)
 8001026:	689b      	ldr	r3, [r3, #8]
 8001028:	6093      	str	r3, [r2, #8]
    
    /* PCLK1 = HCLK /1*/
    RCC->CFGR |= (uint32_t)RCC_CFGR_PPRE1_DIV1;
 800102a:	4a1a      	ldr	r2, [pc, #104]	; (8001094 <SetSysClock+0x114>)
 800102c:	4b19      	ldr	r3, [pc, #100]	; (8001094 <SetSysClock+0x114>)
 800102e:	689b      	ldr	r3, [r3, #8]
 8001030:	6093      	str	r3, [r2, #8]
    
    /*  PLL configuration */
    RCC->CFGR &= (uint32_t)((uint32_t)~(RCC_CFGR_PLLSRC | RCC_CFGR_PLLMUL |
 8001032:	4a18      	ldr	r2, [pc, #96]	; (8001094 <SetSysClock+0x114>)
 8001034:	4b17      	ldr	r3, [pc, #92]	; (8001094 <SetSysClock+0x114>)
 8001036:	689b      	ldr	r3, [r3, #8]
 8001038:	f423 037d 	bic.w	r3, r3, #16580608	; 0xfd0000
 800103c:	6093      	str	r3, [r2, #8]
                                        RCC_CFGR_PLLDIV));
    RCC->CFGR |= (uint32_t)(RCC_CFGR_PLLSRC_HSE | RCC_CFGR_PLLMUL12 | RCC_CFGR_PLLDIV3);
 800103e:	4a15      	ldr	r2, [pc, #84]	; (8001094 <SetSysClock+0x114>)
 8001040:	4b14      	ldr	r3, [pc, #80]	; (8001094 <SetSysClock+0x114>)
 8001042:	689b      	ldr	r3, [r3, #8]
 8001044:	f443 0311 	orr.w	r3, r3, #9502720	; 0x910000
 8001048:	6093      	str	r3, [r2, #8]

    /* Enable PLL */
    RCC->CR |= RCC_CR_PLLON;
 800104a:	4a12      	ldr	r2, [pc, #72]	; (8001094 <SetSysClock+0x114>)
 800104c:	4b11      	ldr	r3, [pc, #68]	; (8001094 <SetSysClock+0x114>)
 800104e:	681b      	ldr	r3, [r3, #0]
 8001050:	f043 7380 	orr.w	r3, r3, #16777216	; 0x1000000
 8001054:	6013      	str	r3, [r2, #0]

    /* Wait till PLL is ready */
    while((RCC->CR & RCC_CR_PLLRDY) == 0)
 8001056:	bf00      	nop
 8001058:	4b0e      	ldr	r3, [pc, #56]	; (8001094 <SetSysClock+0x114>)
 800105a:	681b      	ldr	r3, [r3, #0]
 800105c:	f003 7300 	and.w	r3, r3, #33554432	; 0x2000000
 8001060:	2b00      	cmp	r3, #0
 8001062:	d0f9      	beq.n	8001058 <SetSysClock+0xd8>
    {
    }
        
    /* Select PLL as system clock source */
    RCC->CFGR &= (uint32_t)((uint32_t)~(RCC_CFGR_SW));
 8001064:	4a0b      	ldr	r2, [pc, #44]	; (8001094 <SetSysClock+0x114>)
 8001066:	4b0b      	ldr	r3, [pc, #44]	; (8001094 <SetSysClock+0x114>)
 8001068:	689b      	ldr	r3, [r3, #8]
 800106a:	f023 0303 	bic.w	r3, r3, #3
 800106e:	6093      	str	r3, [r2, #8]
    RCC->CFGR |= (uint32_t)RCC_CFGR_SW_PLL;
 8001070:	4a08      	ldr	r2, [pc, #32]	; (8001094 <SetSysClock+0x114>)
 8001072:	4b08      	ldr	r3, [pc, #32]	; (8001094 <SetSysClock+0x114>)
 8001074:	689b      	ldr	r3, [r3, #8]
 8001076:	f043 0303 	orr.w	r3, r3, #3
 800107a:	6093      	str	r3, [r2, #8]

    /* Wait till PLL is used as system clock source */
    while ((RCC->CFGR & (uint32_t)RCC_CFGR_SWS) != (uint32_t)RCC_CFGR_SWS_PLL)
 800107c:	bf00      	nop
 800107e:	4b05      	ldr	r3, [pc, #20]	; (8001094 <SetSysClock+0x114>)
 8001080:	689b      	ldr	r3, [r3, #8]
 8001082:	f003 030c 	and.w	r3, r3, #12
 8001086:	2b0c      	cmp	r3, #12
 8001088:	d1f9      	bne.n	800107e <SetSysClock+0xfe>
  else
  {
    /* If HSE fails to start-up, the application will have wrong clock
       configuration. User can add here some code to deal with this error */
  }
}
 800108a:	bf00      	nop
 800108c:	370c      	adds	r7, #12
 800108e:	46bd      	mov	sp, r7
 8001090:	bc80      	pop	{r7}
 8001092:	4770      	bx	lr
 8001094:	40023800 	.word	0x40023800
 8001098:	40023c00 	.word	0x40023c00
 800109c:	40007000 	.word	0x40007000

080010a0 <ADC1_IRQHandler>:
extern uint8_t p;
extern uint8_t sprava[7];
extern uint8_t i;


void ADC1_IRQHandler (void){
 80010a0:	b580      	push	{r7, lr}
 80010a2:	af00      	add	r7, sp, #0
	if (ADC_GetFlagStatus(ADC1, ADC_FLAG_EOC))
 80010a4:	2102      	movs	r1, #2
 80010a6:	4807      	ldr	r0, [pc, #28]	; (80010c4 <ADC1_IRQHandler+0x24>)
 80010a8:	f7ff fb14 	bl	80006d4 <ADC_GetFlagStatus>
 80010ac:	4603      	mov	r3, r0
 80010ae:	2b00      	cmp	r3, #0
 80010b0:	d006      	beq.n	80010c0 <ADC1_IRQHandler+0x20>
	{
		ADC_hodnota = ADC_GetConversionValue(ADC1);
 80010b2:	4804      	ldr	r0, [pc, #16]	; (80010c4 <ADC1_IRQHandler+0x24>)
 80010b4:	f7ff fada 	bl	800066c <ADC_GetConversionValue>
 80010b8:	4603      	mov	r3, r0
 80010ba:	461a      	mov	r2, r3
 80010bc:	4b02      	ldr	r3, [pc, #8]	; (80010c8 <ADC1_IRQHandler+0x28>)
 80010be:	801a      	strh	r2, [r3, #0]
	}
}
 80010c0:	bf00      	nop
 80010c2:	bd80      	pop	{r7, pc}
 80010c4:	40012400 	.word	0x40012400
 80010c8:	20000048 	.word	0x20000048

080010cc <USART2_IRQHandler>:


void USART2_IRQHandler (void){
 80010cc:	b580      	push	{r7, lr}
 80010ce:	af00      	add	r7, sp, #0
static uint16_t temp;
		if (USART_GetFlagStatus(USART2, USART_FLAG_TC))
 80010d0:	2140      	movs	r1, #64	; 0x40
 80010d2:	483e      	ldr	r0, [pc, #248]	; (80011cc <USART2_IRQHandler+0x100>)
 80010d4:	f7ff fe9a 	bl	8000e0c <USART_GetFlagStatus>
 80010d8:	4603      	mov	r3, r0
 80010da:	2b00      	cmp	r3, #0
 80010dc:	d073      	beq.n	80011c6 <USART2_IRQHandler+0xfa>
		{
			if (i == 0)
 80010de:	4b3c      	ldr	r3, [pc, #240]	; (80011d0 <USART2_IRQHandler+0x104>)
 80010e0:	781b      	ldrb	r3, [r3, #0]
 80010e2:	2b00      	cmp	r3, #0
 80010e4:	d158      	bne.n	8001198 <USART2_IRQHandler+0xcc>
			{
				temp = ADC_hodnota*1000/4095*33;
 80010e6:	4b3b      	ldr	r3, [pc, #236]	; (80011d4 <USART2_IRQHandler+0x108>)
 80010e8:	881b      	ldrh	r3, [r3, #0]
 80010ea:	461a      	mov	r2, r3
 80010ec:	f44f 737a 	mov.w	r3, #1000	; 0x3e8
 80010f0:	fb03 f302 	mul.w	r3, r3, r2
 80010f4:	4a38      	ldr	r2, [pc, #224]	; (80011d8 <USART2_IRQHandler+0x10c>)
 80010f6:	fb82 1203 	smull	r1, r2, r2, r3
 80010fa:	441a      	add	r2, r3
 80010fc:	12d2      	asrs	r2, r2, #11
 80010fe:	17db      	asrs	r3, r3, #31
 8001100:	1ad3      	subs	r3, r2, r3
 8001102:	b29b      	uxth	r3, r3
 8001104:	461a      	mov	r2, r3
 8001106:	0152      	lsls	r2, r2, #5
 8001108:	4413      	add	r3, r2
 800110a:	b29a      	uxth	r2, r3
 800110c:	4b33      	ldr	r3, [pc, #204]	; (80011dc <USART2_IRQHandler+0x110>)
 800110e:	801a      	strh	r2, [r3, #0]

				sprava[0] 	= 	(temp/10000) + 48;
 8001110:	4b32      	ldr	r3, [pc, #200]	; (80011dc <USART2_IRQHandler+0x110>)
 8001112:	881b      	ldrh	r3, [r3, #0]
 8001114:	4a32      	ldr	r2, [pc, #200]	; (80011e0 <USART2_IRQHandler+0x114>)
 8001116:	fba2 2303 	umull	r2, r3, r2, r3
 800111a:	0b5b      	lsrs	r3, r3, #13
 800111c:	b29b      	uxth	r3, r3
 800111e:	b2db      	uxtb	r3, r3
 8001120:	3330      	adds	r3, #48	; 0x30
 8001122:	b2da      	uxtb	r2, r3
 8001124:	4b2f      	ldr	r3, [pc, #188]	; (80011e4 <USART2_IRQHandler+0x118>)
 8001126:	701a      	strb	r2, [r3, #0]
				sprava[1] 	= 	0x2E;
 8001128:	4b2e      	ldr	r3, [pc, #184]	; (80011e4 <USART2_IRQHandler+0x118>)
 800112a:	222e      	movs	r2, #46	; 0x2e
 800112c:	705a      	strb	r2, [r3, #1]
				sprava[2] 	= 	(temp/1000)%10  + 48;
 800112e:	4b2b      	ldr	r3, [pc, #172]	; (80011dc <USART2_IRQHandler+0x110>)
 8001130:	881b      	ldrh	r3, [r3, #0]
 8001132:	4a2d      	ldr	r2, [pc, #180]	; (80011e8 <USART2_IRQHandler+0x11c>)
 8001134:	fba2 2303 	umull	r2, r3, r2, r3
 8001138:	099b      	lsrs	r3, r3, #6
 800113a:	b29a      	uxth	r2, r3
 800113c:	4b2b      	ldr	r3, [pc, #172]	; (80011ec <USART2_IRQHandler+0x120>)
 800113e:	fba3 1302 	umull	r1, r3, r3, r2
 8001142:	08d9      	lsrs	r1, r3, #3
 8001144:	460b      	mov	r3, r1
 8001146:	009b      	lsls	r3, r3, #2
 8001148:	440b      	add	r3, r1
 800114a:	005b      	lsls	r3, r3, #1
 800114c:	1ad3      	subs	r3, r2, r3
 800114e:	b29b      	uxth	r3, r3
 8001150:	b2db      	uxtb	r3, r3
 8001152:	3330      	adds	r3, #48	; 0x30
 8001154:	b2da      	uxtb	r2, r3
 8001156:	4b23      	ldr	r3, [pc, #140]	; (80011e4 <USART2_IRQHandler+0x118>)
 8001158:	709a      	strb	r2, [r3, #2]
				sprava[3] 	= 	(temp/100)%10   + 48;
 800115a:	4b20      	ldr	r3, [pc, #128]	; (80011dc <USART2_IRQHandler+0x110>)
 800115c:	881b      	ldrh	r3, [r3, #0]
 800115e:	4a24      	ldr	r2, [pc, #144]	; (80011f0 <USART2_IRQHandler+0x124>)
 8001160:	fba2 2303 	umull	r2, r3, r2, r3
 8001164:	095b      	lsrs	r3, r3, #5
 8001166:	b29a      	uxth	r2, r3
 8001168:	4b20      	ldr	r3, [pc, #128]	; (80011ec <USART2_IRQHandler+0x120>)
 800116a:	fba3 1302 	umull	r1, r3, r3, r2
 800116e:	08d9      	lsrs	r1, r3, #3
 8001170:	460b      	mov	r3, r1
 8001172:	009b      	lsls	r3, r3, #2
 8001174:	440b      	add	r3, r1
 8001176:	005b      	lsls	r3, r3, #1
 8001178:	1ad3      	subs	r3, r2, r3
 800117a:	b29b      	uxth	r3, r3
 800117c:	b2db      	uxtb	r3, r3
 800117e:	3330      	adds	r3, #48	; 0x30
 8001180:	b2da      	uxtb	r2, r3
 8001182:	4b18      	ldr	r3, [pc, #96]	; (80011e4 <USART2_IRQHandler+0x118>)
 8001184:	70da      	strb	r2, [r3, #3]
				sprava[4] 	= 	0x56;
 8001186:	4b17      	ldr	r3, [pc, #92]	; (80011e4 <USART2_IRQHandler+0x118>)
 8001188:	2256      	movs	r2, #86	; 0x56
 800118a:	711a      	strb	r2, [r3, #4]
				sprava[5] 	= 	'\n';
 800118c:	4b15      	ldr	r3, [pc, #84]	; (80011e4 <USART2_IRQHandler+0x118>)
 800118e:	220a      	movs	r2, #10
 8001190:	715a      	strb	r2, [r3, #5]
				sprava[6] 	= 	'\r';
 8001192:	4b14      	ldr	r3, [pc, #80]	; (80011e4 <USART2_IRQHandler+0x118>)
 8001194:	220d      	movs	r2, #13
 8001196:	719a      	strb	r2, [r3, #6]
			}


			USART_SendData(USART2, sprava[i]);
 8001198:	4b0d      	ldr	r3, [pc, #52]	; (80011d0 <USART2_IRQHandler+0x104>)
 800119a:	781b      	ldrb	r3, [r3, #0]
 800119c:	461a      	mov	r2, r3
 800119e:	4b11      	ldr	r3, [pc, #68]	; (80011e4 <USART2_IRQHandler+0x118>)
 80011a0:	5c9b      	ldrb	r3, [r3, r2]
 80011a2:	b29b      	uxth	r3, r3
 80011a4:	4619      	mov	r1, r3
 80011a6:	4809      	ldr	r0, [pc, #36]	; (80011cc <USART2_IRQHandler+0x100>)
 80011a8:	f7ff fdd6 	bl	8000d58 <USART_SendData>
			i++;
 80011ac:	4b08      	ldr	r3, [pc, #32]	; (80011d0 <USART2_IRQHandler+0x104>)
 80011ae:	781b      	ldrb	r3, [r3, #0]
 80011b0:	3301      	adds	r3, #1
 80011b2:	b2da      	uxtb	r2, r3
 80011b4:	4b06      	ldr	r3, [pc, #24]	; (80011d0 <USART2_IRQHandler+0x104>)
 80011b6:	701a      	strb	r2, [r3, #0]
			if (i >= 7)	i=0;
 80011b8:	4b05      	ldr	r3, [pc, #20]	; (80011d0 <USART2_IRQHandler+0x104>)
 80011ba:	781b      	ldrb	r3, [r3, #0]
 80011bc:	2b06      	cmp	r3, #6
 80011be:	d902      	bls.n	80011c6 <USART2_IRQHandler+0xfa>
 80011c0:	4b03      	ldr	r3, [pc, #12]	; (80011d0 <USART2_IRQHandler+0x104>)
 80011c2:	2200      	movs	r2, #0
 80011c4:	701a      	strb	r2, [r3, #0]

		}
}
 80011c6:	bf00      	nop
 80011c8:	bd80      	pop	{r7, pc}
 80011ca:	bf00      	nop
 80011cc:	40004400 	.word	0x40004400
 80011d0:	20000038 	.word	0x20000038
 80011d4:	20000048 	.word	0x20000048
 80011d8:	80080081 	.word	0x80080081
 80011dc:	2000003a 	.word	0x2000003a
 80011e0:	d1b71759 	.word	0xd1b71759
 80011e4:	20000040 	.word	0x20000040
 80011e8:	10624dd3 	.word	0x10624dd3
 80011ec:	cccccccd 	.word	0xcccccccd
 80011f0:	51eb851f 	.word	0x51eb851f

080011f4 <UART_init>:




void UART_init (void)
{
 80011f4:	b580      	push	{r7, lr}
 80011f6:	b084      	sub	sp, #16
 80011f8:	af00      	add	r7, sp, #0
	RCC_APB1PeriphClockCmd(RCC_APB1Periph_USART2, ENABLE);
 80011fa:	2101      	movs	r1, #1
 80011fc:	f44f 3000 	mov.w	r0, #131072	; 0x20000
 8001200:	f7ff fc86 	bl	8000b10 <RCC_APB1PeriphClockCmd>

	/*konfiguracia USART*/
	USART_InitTypeDef USART_InitStructure;
	USART_InitStructure.USART_BaudRate 				= 9600;
 8001204:	f44f 5316 	mov.w	r3, #9600	; 0x2580
 8001208:	603b      	str	r3, [r7, #0]
	USART_InitStructure.USART_WordLength 			= USART_WordLength_8b;
 800120a:	2300      	movs	r3, #0
 800120c:	80bb      	strh	r3, [r7, #4]
	USART_InitStructure.USART_StopBits 				= USART_StopBits_1;
 800120e:	2300      	movs	r3, #0
 8001210:	80fb      	strh	r3, [r7, #6]
	USART_InitStructure.USART_Parity 				= USART_Parity_No;
 8001212:	2300      	movs	r3, #0
 8001214:	813b      	strh	r3, [r7, #8]
	USART_InitStructure.USART_HardwareFlowControl 	= USART_HardwareFlowControl_None;
 8001216:	2300      	movs	r3, #0
 8001218:	81bb      	strh	r3, [r7, #12]
	USART_InitStructure.USART_Mode 					= USART_Mode_Rx | USART_Mode_Tx;
 800121a:	230c      	movs	r3, #12
 800121c:	817b      	strh	r3, [r7, #10]
	USART_Init(USART2, &USART_InitStructure);
 800121e:	463b      	mov	r3, r7
 8001220:	4619      	mov	r1, r3
 8001222:	4805      	ldr	r0, [pc, #20]	; (8001238 <UART_init+0x44>)
 8001224:	f7ff fcc4 	bl	8000bb0 <USART_Init>

	USART_Cmd(USART2, ENABLE);
 8001228:	2101      	movs	r1, #1
 800122a:	4803      	ldr	r0, [pc, #12]	; (8001238 <UART_init+0x44>)
 800122c:	f7ff fd74 	bl	8000d18 <USART_Cmd>
}
 8001230:	bf00      	nop
 8001232:	3710      	adds	r7, #16
 8001234:	46bd      	mov	sp, r7
 8001236:	bd80      	pop	{r7, pc}
 8001238:	40004400 	.word	0x40004400

0800123c <NVIC_init>:




void NVIC_init(void)
{
 800123c:	b580      	push	{r7, lr}
 800123e:	b082      	sub	sp, #8
 8001240:	af00      	add	r7, sp, #0

	NVIC_PriorityGroupConfig(NVIC_PriorityGroup_4);								//prioritna skupina 4
 8001242:	f44f 7040 	mov.w	r0, #768	; 0x300
 8001246:	f7fe ff99 	bl	800017c <NVIC_PriorityGroupConfig>

	NVIC_InitTypeDef NVIC_InitStructure;

	NVIC_InitStructure.NVIC_IRQChannel 						= ADC1_IRQn;		//vektor prerusenia
 800124a:	2312      	movs	r3, #18
 800124c:	713b      	strb	r3, [r7, #4]
	NVIC_InitStructure.NVIC_IRQChannelPreemptionPriority 	= 16;				//priorita cislo 1
 800124e:	2310      	movs	r3, #16
 8001250:	717b      	strb	r3, [r7, #5]
	NVIC_InitStructure.NVIC_IRQChannelSubPriority 			= 0;				//subpriorita 0
 8001252:	2300      	movs	r3, #0
 8001254:	71bb      	strb	r3, [r7, #6]
	NVIC_InitStructure.NVIC_IRQChannelCmd 					= ENABLE;			//povolenie prerusenia
 8001256:	2301      	movs	r3, #1
 8001258:	71fb      	strb	r3, [r7, #7]

	NVIC_Init(&NVIC_InitStructure);
 800125a:	1d3b      	adds	r3, r7, #4
 800125c:	4618      	mov	r0, r3
 800125e:	f7fe ff9f 	bl	80001a0 <NVIC_Init>

	ADC_ITConfig(ADC1, ADC_IT_EOC, ENABLE);										//povolenie prerusenia na EOC
 8001262:	2201      	movs	r2, #1
 8001264:	f240 2105 	movw	r1, #517	; 0x205
 8001268:	4812      	ldr	r0, [pc, #72]	; (80012b4 <NVIC_init+0x78>)
 800126a:	f7ff fa0b 	bl	8000684 <ADC_ITConfig>
	ADC_ITConfig(ADC1, ADC_IT_OVR, ENABLE);
 800126e:	2201      	movs	r2, #1
 8001270:	f242 011a 	movw	r1, #8218	; 0x201a
 8001274:	480f      	ldr	r0, [pc, #60]	; (80012b4 <NVIC_init+0x78>)
 8001276:	f7ff fa05 	bl	8000684 <ADC_ITConfig>

	NVIC_InitStructure.NVIC_IRQChannel 						= USART2_IRQn;
 800127a:	2326      	movs	r3, #38	; 0x26
 800127c:	713b      	strb	r3, [r7, #4]
	NVIC_InitStructure.NVIC_IRQChannelPreemptionPriority 	= 2;
 800127e:	2302      	movs	r3, #2
 8001280:	717b      	strb	r3, [r7, #5]
	NVIC_InitStructure.NVIC_IRQChannelSubPriority 			= 0;
 8001282:	2300      	movs	r3, #0
 8001284:	71bb      	strb	r3, [r7, #6]
	NVIC_InitStructure.NVIC_IRQChannelCmd 					= ENABLE;
 8001286:	2301      	movs	r3, #1
 8001288:	71fb      	strb	r3, [r7, #7]

	NVIC_Init(&NVIC_InitStructure);
 800128a:	1d3b      	adds	r3, r7, #4
 800128c:	4618      	mov	r0, r3
 800128e:	f7fe ff87 	bl	80001a0 <NVIC_Init>

	USART_ITConfig(USART2, USART_IT_RXNE, ENABLE);			//povolenie prerusenia na RXNE
 8001292:	2201      	movs	r2, #1
 8001294:	f240 5125 	movw	r1, #1317	; 0x525
 8001298:	4807      	ldr	r0, [pc, #28]	; (80012b8 <NVIC_init+0x7c>)
 800129a:	f7ff fd6f 	bl	8000d7c <USART_ITConfig>
	USART_ITConfig(USART2, USART_IT_TXE, ENABLE);			//povolenie prerusenia na TXE
 800129e:	2201      	movs	r2, #1
 80012a0:	f240 7127 	movw	r1, #1831	; 0x727
 80012a4:	4804      	ldr	r0, [pc, #16]	; (80012b8 <NVIC_init+0x7c>)
 80012a6:	f7ff fd69 	bl	8000d7c <USART_ITConfig>
}
 80012aa:	bf00      	nop
 80012ac:	3708      	adds	r7, #8
 80012ae:	46bd      	mov	sp, r7
 80012b0:	bd80      	pop	{r7, pc}
 80012b2:	bf00      	nop
 80012b4:	40012400 	.word	0x40012400
 80012b8:	40004400 	.word	0x40004400

080012bc <GPIO_init>:

void GPIO_init(void)
{
 80012bc:	b580      	push	{r7, lr}
 80012be:	b084      	sub	sp, #16
 80012c0:	af00      	add	r7, sp, #0
	 GPIO_InitTypeDef	GPIO_InitStruct;

	 GPIO_InitStruct.GPIO_Pin 	= GPIO_Pin_0;			//ADC na pine 0
 80012c2:	2301      	movs	r3, #1
 80012c4:	60bb      	str	r3, [r7, #8]
	 GPIO_InitStruct.GPIO_Mode 	= GPIO_Mode_AN;			//pin 0 ako analogovy
 80012c6:	2303      	movs	r3, #3
 80012c8:	733b      	strb	r3, [r7, #12]
	 GPIO_InitStruct.GPIO_PuPd 	= GPIO_PuPd_NOPULL;		//ziadny Pull na pine 0
 80012ca:	2300      	movs	r3, #0
 80012cc:	73fb      	strb	r3, [r7, #15]
	 GPIO_Init(GPIOA, &GPIO_InitStruct);
 80012ce:	f107 0308 	add.w	r3, r7, #8
 80012d2:	4619      	mov	r1, r3
 80012d4:	4816      	ldr	r0, [pc, #88]	; (8001330 <GPIO_init+0x74>)
 80012d6:	f7ff fa17 	bl	8000708 <GPIO_Init>

	 RCC_HSICmd(ENABLE);								//HSI oscilator zapnuty
 80012da:	2001      	movs	r0, #1
 80012dc:	f7ff faf2 	bl	80008c4 <RCC_HSICmd>

	 /* Check that HSI oscillator is ready */
	 while(RCC_GetFlagStatus(RCC_FLAG_HSIRDY) == RESET);
 80012e0:	bf00      	nop
 80012e2:	2021      	movs	r0, #33	; 0x21
 80012e4:	f7ff fc32 	bl	8000b4c <RCC_GetFlagStatus>
 80012e8:	4603      	mov	r3, r0
 80012ea:	2b00      	cmp	r3, #0
 80012ec:	d0f9      	beq.n	80012e2 <GPIO_init+0x26>

	 GPIO_InitTypeDef gpioInitStruct;

	 RCC_AHBPeriphClockCmd(RCC_AHBPeriph_GPIOA, ENABLE);
 80012ee:	2101      	movs	r1, #1
 80012f0:	2001      	movs	r0, #1
 80012f2:	f7ff fbd1 	bl	8000a98 <RCC_AHBPeriphClockCmd>

	 gpioInitStruct.GPIO_Mode 	= GPIO_Mode_AF;					//alternativna funkcia
 80012f6:	2302      	movs	r3, #2
 80012f8:	713b      	strb	r3, [r7, #4]
	 gpioInitStruct.GPIO_OType 	= GPIO_OType_PP;				//PushPull
 80012fa:	2300      	movs	r3, #0
 80012fc:	71bb      	strb	r3, [r7, #6]
	 gpioInitStruct.GPIO_Pin 	= GPIO_Pin_2 | GPIO_Pin_3;		//USART2 na pine 2 a 3
 80012fe:	230c      	movs	r3, #12
 8001300:	603b      	str	r3, [r7, #0]
	 gpioInitStruct.GPIO_Speed 	= GPIO_Speed_40MHz;				//rychlost 30MHz
 8001302:	2303      	movs	r3, #3
 8001304:	717b      	strb	r3, [r7, #5]
	 gpioInitStruct.GPIO_PuPd 	= GPIO_PuPd_NOPULL;				//ziadny Pull
 8001306:	2300      	movs	r3, #0
 8001308:	71fb      	strb	r3, [r7, #7]

	 GPIO_Init(GPIOA, &gpioInitStruct);
 800130a:	463b      	mov	r3, r7
 800130c:	4619      	mov	r1, r3
 800130e:	4808      	ldr	r0, [pc, #32]	; (8001330 <GPIO_init+0x74>)
 8001310:	f7ff f9fa 	bl	8000708 <GPIO_Init>

	 GPIO_PinAFConfig(GPIOA, GPIO_PinSource2, GPIO_AF_USART2);	//nastavenie alternativnej funkcie na pinoch 2 a 3
 8001314:	2207      	movs	r2, #7
 8001316:	2102      	movs	r1, #2
 8001318:	4805      	ldr	r0, [pc, #20]	; (8001330 <GPIO_init+0x74>)
 800131a:	f7ff fa8b 	bl	8000834 <GPIO_PinAFConfig>
	 GPIO_PinAFConfig(GPIOA, GPIO_PinSource3, GPIO_AF_USART2);
 800131e:	2207      	movs	r2, #7
 8001320:	2103      	movs	r1, #3
 8001322:	4803      	ldr	r0, [pc, #12]	; (8001330 <GPIO_init+0x74>)
 8001324:	f7ff fa86 	bl	8000834 <GPIO_PinAFConfig>

}
 8001328:	bf00      	nop
 800132a:	3710      	adds	r7, #16
 800132c:	46bd      	mov	sp, r7
 800132e:	bd80      	pop	{r7, pc}
 8001330:	40020000 	.word	0x40020000

08001334 <ADC_init>:


void ADC_init (void)
{
 8001334:	b580      	push	{r7, lr}
 8001336:	b086      	sub	sp, #24
 8001338:	af00      	add	r7, sp, #0
	 	 ADC_InitTypeDef	ADC_InitStruct;
		 /* Enable ADC clock */
		 RCC_APB2PeriphClockCmd(RCC_APB2Periph_ADC1, ENABLE);		//hodiny pre ADC1 zapnute
 800133a:	2101      	movs	r1, #1
 800133c:	f44f 7000 	mov.w	r0, #512	; 0x200
 8001340:	f7ff fbc8 	bl	8000ad4 <RCC_APB2PeriphClockCmd>

		 /* Initialize ADC structure */
		 ADC_StructInit(&ADC_InitStruct);
 8001344:	463b      	mov	r3, r7
 8001346:	4618      	mov	r0, r3
 8001348:	f7fe ffde 	bl	8000308 <ADC_StructInit>

		 /* ADC1 configuration */
		 ADC_InitStruct.ADC_Resolution 				= ADC_Resolution_12b;					//rozlisenie ADC 12 bitov
 800134c:	2300      	movs	r3, #0
 800134e:	603b      	str	r3, [r7, #0]
		 ADC_InitStruct.ADC_ContinuousConvMode 		= ENABLE;								//kontinualny prevod zapnuty
 8001350:	2301      	movs	r3, #1
 8001352:	717b      	strb	r3, [r7, #5]
		 ADC_InitStruct.ADC_ExternalTrigConvEdge 	= ADC_ExternalTrigConvEdge_None;		//externy trigger vypnuty
 8001354:	2300      	movs	r3, #0
 8001356:	60bb      	str	r3, [r7, #8]
		 ADC_InitStruct.ADC_DataAlign 				= ADC_DataAlign_Right;					//zarovnanie dat vpravo
 8001358:	2300      	movs	r3, #0
 800135a:	613b      	str	r3, [r7, #16]
		 ADC_InitStruct.ADC_NbrOfConversion 		= 1;									//pocet prevodov
 800135c:	2301      	movs	r3, #1
 800135e:	753b      	strb	r3, [r7, #20]

		 ADC_Init(ADC1, &ADC_InitStruct);
 8001360:	463b      	mov	r3, r7
 8001362:	4619      	mov	r1, r3
 8001364:	480d      	ldr	r0, [pc, #52]	; (800139c <ADC_init+0x68>)
 8001366:	f7fe ff7b 	bl	8000260 <ADC_Init>

		/* ADCx regular channel8 configuration */
		 ADC_RegularChannelConfig(ADC1, ADC_Channel_0, 1, ADC_SampleTime_384Cycles);		//nastavenie ADC kanala
 800136a:	2307      	movs	r3, #7
 800136c:	2201      	movs	r2, #1
 800136e:	2100      	movs	r1, #0
 8001370:	480a      	ldr	r0, [pc, #40]	; (800139c <ADC_init+0x68>)
 8001372:	f7ff f805 	bl	8000380 <ADC_RegularChannelConfig>

		 /* Enable the ADC */
		 ADC_Cmd(ADC1, ENABLE);																//zapnutie periferie
 8001376:	2101      	movs	r1, #1
 8001378:	4808      	ldr	r0, [pc, #32]	; (800139c <ADC_init+0x68>)
 800137a:	f7fe ffe5 	bl	8000348 <ADC_Cmd>

		 /* Wait until the ADC1 is ready */
		 while(ADC_GetFlagStatus(ADC1, ADC_FLAG_ADONS) == RESET)
 800137e:	bf00      	nop
 8001380:	2140      	movs	r1, #64	; 0x40
 8001382:	4806      	ldr	r0, [pc, #24]	; (800139c <ADC_init+0x68>)
 8001384:	f7ff f9a6 	bl	80006d4 <ADC_GetFlagStatus>
 8001388:	4603      	mov	r3, r0
 800138a:	2b00      	cmp	r3, #0
 800138c:	d0f8      	beq.n	8001380 <ADC_init+0x4c>
		 {
		 }
		 /* Start ADC Software Conversion */
		 ADC_SoftwareStartConv(ADC1);
 800138e:	4803      	ldr	r0, [pc, #12]	; (800139c <ADC_init+0x68>)
 8001390:	f7ff f95c 	bl	800064c <ADC_SoftwareStartConv>
}
 8001394:	bf00      	nop
 8001396:	3718      	adds	r7, #24
 8001398:	46bd      	mov	sp, r7
 800139a:	bd80      	pop	{r7, pc}
 800139c:	40012400 	.word	0x40012400

080013a0 <__libc_init_array>:
 80013a0:	4b0e      	ldr	r3, [pc, #56]	; (80013dc <__libc_init_array+0x3c>)
 80013a2:	b570      	push	{r4, r5, r6, lr}
 80013a4:	461e      	mov	r6, r3
 80013a6:	4c0e      	ldr	r4, [pc, #56]	; (80013e0 <__libc_init_array+0x40>)
 80013a8:	2500      	movs	r5, #0
 80013aa:	1ae4      	subs	r4, r4, r3
 80013ac:	10a4      	asrs	r4, r4, #2
 80013ae:	42a5      	cmp	r5, r4
 80013b0:	d004      	beq.n	80013bc <__libc_init_array+0x1c>
 80013b2:	f856 3025 	ldr.w	r3, [r6, r5, lsl #2]
 80013b6:	4798      	blx	r3
 80013b8:	3501      	adds	r5, #1
 80013ba:	e7f8      	b.n	80013ae <__libc_init_array+0xe>
 80013bc:	f000 f816 	bl	80013ec <_init>
 80013c0:	4b08      	ldr	r3, [pc, #32]	; (80013e4 <__libc_init_array+0x44>)
 80013c2:	4c09      	ldr	r4, [pc, #36]	; (80013e8 <__libc_init_array+0x48>)
 80013c4:	461e      	mov	r6, r3
 80013c6:	1ae4      	subs	r4, r4, r3
 80013c8:	10a4      	asrs	r4, r4, #2
 80013ca:	2500      	movs	r5, #0
 80013cc:	42a5      	cmp	r5, r4
 80013ce:	d004      	beq.n	80013da <__libc_init_array+0x3a>
 80013d0:	f856 3025 	ldr.w	r3, [r6, r5, lsl #2]
 80013d4:	4798      	blx	r3
 80013d6:	3501      	adds	r5, #1
 80013d8:	e7f8      	b.n	80013cc <__libc_init_array+0x2c>
 80013da:	bd70      	pop	{r4, r5, r6, pc}
 80013dc:	08001404 	.word	0x08001404
 80013e0:	08001404 	.word	0x08001404
 80013e4:	08001404 	.word	0x08001404
 80013e8:	08001408 	.word	0x08001408

080013ec <_init>:
 80013ec:	b5f8      	push	{r3, r4, r5, r6, r7, lr}
 80013ee:	bf00      	nop
 80013f0:	bcf8      	pop	{r3, r4, r5, r6, r7}
 80013f2:	bc08      	pop	{r3}
 80013f4:	469e      	mov	lr, r3
 80013f6:	4770      	bx	lr

080013f8 <_fini>:
 80013f8:	b5f8      	push	{r3, r4, r5, r6, r7, lr}
 80013fa:	bf00      	nop
 80013fc:	bcf8      	pop	{r3, r4, r5, r6, r7}
 80013fe:	bc08      	pop	{r3}
 8001400:	469e      	mov	lr, r3
 8001402:	4770      	bx	lr
